libvtkgdcm.so.2.8 libvtkgdcm2.8 #MINVER#
 _Z23vtkImageRGBToYBRExecuteIaEvP16vtkImageRGBToYBRP12vtkImageDataS3_PiiPT_@Base 2.8.7
 _Z23vtkImageRGBToYBRExecuteIcEvP16vtkImageRGBToYBRP12vtkImageDataS3_PiiPT_@Base 2.8.7
 _Z23vtkImageRGBToYBRExecuteIdEvP16vtkImageRGBToYBRP12vtkImageDataS3_PiiPT_@Base 2.8.7
 _Z23vtkImageRGBToYBRExecuteIfEvP16vtkImageRGBToYBRP12vtkImageDataS3_PiiPT_@Base 2.8.7
 _Z23vtkImageRGBToYBRExecuteIhEvP16vtkImageRGBToYBRP12vtkImageDataS3_PiiPT_@Base 2.8.7
 _Z23vtkImageRGBToYBRExecuteIiEvP16vtkImageRGBToYBRP12vtkImageDataS3_PiiPT_@Base 2.8.7
 _Z23vtkImageRGBToYBRExecuteIjEvP16vtkImageRGBToYBRP12vtkImageDataS3_PiiPT_@Base 2.8.7
 _Z23vtkImageRGBToYBRExecuteIlEvP16vtkImageRGBToYBRP12vtkImageDataS3_PiiPT_@Base 2.8.7
 _Z23vtkImageRGBToYBRExecuteImEvP16vtkImageRGBToYBRP12vtkImageDataS3_PiiPT_@Base 2.8.7
 _Z23vtkImageRGBToYBRExecuteIsEvP16vtkImageRGBToYBRP12vtkImageDataS3_PiiPT_@Base 2.8.7
 _Z23vtkImageRGBToYBRExecuteItEvP16vtkImageRGBToYBRP12vtkImageDataS3_PiiPT_@Base 2.8.7
 _Z23vtkImageRGBToYBRExecuteIxEvP16vtkImageRGBToYBRP12vtkImageDataS3_PiiPT_@Base 2.8.7
 _Z23vtkImageRGBToYBRExecuteIyEvP16vtkImageRGBToYBRP12vtkImageDataS3_PiiPT_@Base 2.8.7
 _Z23vtkImageYBRToRGBExecuteIaEvP16vtkImageYBRToRGBP12vtkImageDataS3_PiiPT_@Base 2.8.7
 _Z23vtkImageYBRToRGBExecuteIcEvP16vtkImageYBRToRGBP12vtkImageDataS3_PiiPT_@Base 2.8.7
 _Z23vtkImageYBRToRGBExecuteIdEvP16vtkImageYBRToRGBP12vtkImageDataS3_PiiPT_@Base 2.8.7
 _Z23vtkImageYBRToRGBExecuteIfEvP16vtkImageYBRToRGBP12vtkImageDataS3_PiiPT_@Base 2.8.7
 _Z23vtkImageYBRToRGBExecuteIhEvP16vtkImageYBRToRGBP12vtkImageDataS3_PiiPT_@Base 2.8.7
 _Z23vtkImageYBRToRGBExecuteIiEvP16vtkImageYBRToRGBP12vtkImageDataS3_PiiPT_@Base 2.8.7
 _Z23vtkImageYBRToRGBExecuteIjEvP16vtkImageYBRToRGBP12vtkImageDataS3_PiiPT_@Base 2.8.7
 _Z23vtkImageYBRToRGBExecuteIlEvP16vtkImageYBRToRGBP12vtkImageDataS3_PiiPT_@Base 2.8.7
 _Z23vtkImageYBRToRGBExecuteImEvP16vtkImageYBRToRGBP12vtkImageDataS3_PiiPT_@Base 2.8.7
 _Z23vtkImageYBRToRGBExecuteIsEvP16vtkImageYBRToRGBP12vtkImageDataS3_PiiPT_@Base 2.8.7
 _Z23vtkImageYBRToRGBExecuteItEvP16vtkImageYBRToRGBP12vtkImageDataS3_PiiPT_@Base 2.8.7
 _Z23vtkImageYBRToRGBExecuteIxEvP16vtkImageYBRToRGBP12vtkImageDataS3_PiiPT_@Base 2.8.7
 _Z23vtkImageYBRToRGBExecuteIyEvP16vtkImageYBRToRGBP12vtkImageDataS3_PiiPT_@Base 2.8.7
 _Z23vtkLookupTable16MapDataIaEvP16vtkLookupTable16PT_Ptiii@Base 2.8.7
 _Z23vtkLookupTable16MapDataIcEvP16vtkLookupTable16PT_Ptiii@Base 2.8.7
 _Z23vtkLookupTable16MapDataIdEvP16vtkLookupTable16PT_Ptiii@Base 2.8.7
 _Z23vtkLookupTable16MapDataIfEvP16vtkLookupTable16PT_Ptiii@Base 2.8.7
 _Z23vtkLookupTable16MapDataIhEvP16vtkLookupTable16PT_Ptiii@Base 2.8.7
 _Z23vtkLookupTable16MapDataIiEvP16vtkLookupTable16PT_Ptiii@Base 2.8.7
 _Z23vtkLookupTable16MapDataIjEvP16vtkLookupTable16PT_Ptiii@Base 2.8.7
 _Z23vtkLookupTable16MapDataIlEvP16vtkLookupTable16PT_Ptiii@Base 2.8.7
 _Z23vtkLookupTable16MapDataImEvP16vtkLookupTable16PT_Ptiii@Base 2.8.7
 _Z23vtkLookupTable16MapDataIsEvP16vtkLookupTable16PT_Ptiii@Base 2.8.7
 _Z23vtkLookupTable16MapDataItEvP16vtkLookupTable16PT_Ptiii@Base 2.8.7
 _Z23vtkLookupTable16MapDataIxEvP16vtkLookupTable16PT_Ptiii@Base 2.8.7
 _Z23vtkLookupTable16MapDataIyEvP16vtkLookupTable16PT_Ptiii@Base 2.8.7
 _Z24vtkLookupTableLogRange16PdS_@Base 2.8.7
 _Z28vtkImageMapToColors16ExecuteP21vtkImageMapToColors16P12vtkImageDataPvS2_PtPii@Base 2.8.7
 _Z34vtkGDCMThreadedImageReader2ExecuteIaEvP27vtkGDCMThreadedImageReader2PP12vtkImageDataiS3_PiiPT_@Base 2.8.7
 _Z34vtkGDCMThreadedImageReader2ExecuteIcEvP27vtkGDCMThreadedImageReader2PP12vtkImageDataiS3_PiiPT_@Base 2.8.7
 _Z34vtkGDCMThreadedImageReader2ExecuteIdEvP27vtkGDCMThreadedImageReader2PP12vtkImageDataiS3_PiiPT_@Base 2.8.7
 _Z34vtkGDCMThreadedImageReader2ExecuteIfEvP27vtkGDCMThreadedImageReader2PP12vtkImageDataiS3_PiiPT_@Base 2.8.7
 _Z34vtkGDCMThreadedImageReader2ExecuteIhEvP27vtkGDCMThreadedImageReader2PP12vtkImageDataiS3_PiiPT_@Base 2.8.7
 _Z34vtkGDCMThreadedImageReader2ExecuteIiEvP27vtkGDCMThreadedImageReader2PP12vtkImageDataiS3_PiiPT_@Base 2.8.7
 _Z34vtkGDCMThreadedImageReader2ExecuteIjEvP27vtkGDCMThreadedImageReader2PP12vtkImageDataiS3_PiiPT_@Base 2.8.7
 _Z34vtkGDCMThreadedImageReader2ExecuteIlEvP27vtkGDCMThreadedImageReader2PP12vtkImageDataiS3_PiiPT_@Base 2.8.7
 _Z34vtkGDCMThreadedImageReader2ExecuteImEvP27vtkGDCMThreadedImageReader2PP12vtkImageDataiS3_PiiPT_@Base 2.8.7
 _Z34vtkGDCMThreadedImageReader2ExecuteIsEvP27vtkGDCMThreadedImageReader2PP12vtkImageDataiS3_PiiPT_@Base 2.8.7
 _Z34vtkGDCMThreadedImageReader2ExecuteItEvP27vtkGDCMThreadedImageReader2PP12vtkImageDataiS3_PiiPT_@Base 2.8.7
 _Z34vtkGDCMThreadedImageReader2ExecuteIxEvP27vtkGDCMThreadedImageReader2PP12vtkImageDataiS3_PiiPT_@Base 2.8.7
 _Z34vtkGDCMThreadedImageReader2ExecuteIyEvP27vtkGDCMThreadedImageReader2PP12vtkImageDataiS3_PiiPT_@Base 2.8.7
 _Z38vtkImageMapToWindowLevelColors2ExecuteIaEvP31vtkImageMapToWindowLevelColors2P12vtkImageDataPT_S3_PhPii@Base 2.8.7
 _Z38vtkImageMapToWindowLevelColors2ExecuteIcEvP31vtkImageMapToWindowLevelColors2P12vtkImageDataPT_S3_PhPii@Base 2.8.7
 _Z38vtkImageMapToWindowLevelColors2ExecuteIdEvP31vtkImageMapToWindowLevelColors2P12vtkImageDataPT_S3_PhPii@Base 2.8.7
 _Z38vtkImageMapToWindowLevelColors2ExecuteIfEvP31vtkImageMapToWindowLevelColors2P12vtkImageDataPT_S3_PhPii@Base 2.8.7
 _Z38vtkImageMapToWindowLevelColors2ExecuteIhEvP31vtkImageMapToWindowLevelColors2P12vtkImageDataPT_S3_PhPii@Base 2.8.7
 _Z38vtkImageMapToWindowLevelColors2ExecuteIiEvP31vtkImageMapToWindowLevelColors2P12vtkImageDataPT_S3_PhPii@Base 2.8.7
 _Z38vtkImageMapToWindowLevelColors2ExecuteIjEvP31vtkImageMapToWindowLevelColors2P12vtkImageDataPT_S3_PhPii@Base 2.8.7
 _Z38vtkImageMapToWindowLevelColors2ExecuteIlEvP31vtkImageMapToWindowLevelColors2P12vtkImageDataPT_S3_PhPii@Base 2.8.7
 _Z38vtkImageMapToWindowLevelColors2ExecuteImEvP31vtkImageMapToWindowLevelColors2P12vtkImageDataPT_S3_PhPii@Base 2.8.7
 _Z38vtkImageMapToWindowLevelColors2ExecuteIsEvP31vtkImageMapToWindowLevelColors2P12vtkImageDataPT_S3_PhPii@Base 2.8.7
 _Z38vtkImageMapToWindowLevelColors2ExecuteItEvP31vtkImageMapToWindowLevelColors2P12vtkImageDataPT_S3_PhPii@Base 2.8.7
 _Z38vtkImageMapToWindowLevelColors2ExecuteIxEvP31vtkImageMapToWindowLevelColors2P12vtkImageDataPT_S3_PhPii@Base 2.8.7
 _Z38vtkImageMapToWindowLevelColors2ExecuteIyEvP31vtkImageMapToWindowLevelColors2P12vtkImageDataPT_S3_PhPii@Base 2.8.7
 _ZN10vtkCommand10UnRegisterEP13vtkObjectBase@Base 2.8.7
 _ZN10vtkCommand3IsAEPKc@Base 2.8.7
 _ZN11vtkBitArray14GetVoidPointerEx@Base 2.8.7
 _ZN12vtkAlgorithm11GetProgressEv@Base 2.8.7
 _ZN12vtkAlgorithm11SetProgressEd@Base 2.8.7
 _ZN12vtkAlgorithm12GetErrorCodeEv@Base 2.8.7
 _ZN12vtkAlgorithm12SetErrorCodeEm@Base 2.8.7
 _ZN12vtkAlgorithm14AbortExecuteOnEv@Base 2.8.7
 _ZN12vtkAlgorithm14GetInformationEv@Base 2.8.7
 _ZN12vtkAlgorithm15AbortExecuteOffEv@Base 2.8.7
 _ZN12vtkAlgorithm15GetAbortExecuteEv@Base 2.8.7
 _ZN12vtkAlgorithm15GetProgressTextEv@Base 2.8.7
 _ZN12vtkAlgorithm15SetAbortExecuteEi@Base 2.8.7
 _ZN12vtkAlgorithm18AddInputDataObjectEP13vtkDataObject@Base 2.8.7
 _ZN12vtkAlgorithm18SetInputDataObjectEP13vtkDataObject@Base 2.8.7
 _ZN12vtkAlgorithm19GetProgressMaxValueEv@Base 2.8.7
 _ZN12vtkAlgorithm19GetProgressMinValueEv@Base 2.8.7
 _ZN12vtkAlgorithm19GetProgressObserverEv@Base 2.8.7
 _ZN12vtkCellArray14InsertNextCellExPKx@Base 2.8.7
 _ZN12vtkImageData17GetNumberOfPointsEv@Base 2.8.7
 _ZN12vtkImageData9GetExtentEPi@Base 2.8.7
 _ZN12vtkImageData9GetExtentERiS0_S0_S0_S0_S0_@Base 2.8.7
 _ZN12vtkImageData9GetExtentEv@Base 2.8.7
 _ZN13vtkDataWriter11GetFileNameEv@Base 2.8.7
 _ZN13vtkDataWriter11GetFileTypeEv@Base 2.8.7
 _ZN13vtkDataWriter11SetFileNameEPKc@Base 2.8.7
 _ZN13vtkDataWriter11SetFileTypeEi@Base 2.8.7
 _ZN13vtkDataWriter14GetNormalsNameEv@Base 2.8.7
 _ZN13vtkDataWriter14GetScalarsNameEv@Base 2.8.7
 _ZN13vtkDataWriter14GetTCoordsNameEv@Base 2.8.7
 _ZN13vtkDataWriter14GetTensorsNameEv@Base 2.8.7
 _ZN13vtkDataWriter14GetVectorsNameEv@Base 2.8.7
 _ZN13vtkDataWriter14SetNormalsNameEPKc@Base 2.8.7
 _ZN13vtkDataWriter14SetScalarsNameEPKc@Base 2.8.7
 _ZN13vtkDataWriter14SetTCoordsNameEPKc@Base 2.8.7
 _ZN13vtkDataWriter14SetTensorsNameEPKc@Base 2.8.7
 _ZN13vtkDataWriter14SetVectorsNameEPKc@Base 2.8.7
 _ZN13vtkDataWriter15GetOutputStringEv@Base 2.8.7
 _ZN13vtkDataWriter16GetEdgeFlagsNameEv@Base 2.8.7
 _ZN13vtkDataWriter16GetFieldDataNameEv@Base 2.8.7
 _ZN13vtkDataWriter16GetGlobalIdsNameEv@Base 2.8.7
 _ZN13vtkDataWriter16SetEdgeFlagsNameEPKc@Base 2.8.7
 _ZN13vtkDataWriter16SetFieldDataNameEPKc@Base 2.8.7
 _ZN13vtkDataWriter16SetGlobalIdsNameEPKc@Base 2.8.7
 _ZN13vtkDataWriter18GetLookupTableNameEv@Base 2.8.7
 _ZN13vtkDataWriter18GetPedigreeIdsNameEv@Base 2.8.7
 _ZN13vtkDataWriter18SetLookupTableNameEPKc@Base 2.8.7
 _ZN13vtkDataWriter18SetPedigreeIdsNameEPKc@Base 2.8.7
 _ZN13vtkDataWriter19GetFileTypeMaxValueEv@Base 2.8.7
 _ZN13vtkDataWriter19GetFileTypeMinValueEv@Base 2.8.7
 _ZN13vtkDataWriter21GetOutputStringLengthEv@Base 2.8.7
 _ZN13vtkDataWriter21WriteToOutputStringOnEv@Base 2.8.7
 _ZN13vtkDataWriter22GetWriteToOutputStringEv@Base 2.8.7
 _ZN13vtkDataWriter22SetWriteToOutputStringEi@Base 2.8.7
 _ZN13vtkDataWriter22WriteToOutputStringOffEv@Base 2.8.7
 _ZN13vtkDataWriter9GetHeaderEv@Base 2.8.7
 _ZN13vtkDataWriter9SetHeaderEPKc@Base 2.8.7
 _ZN13vtkImageSlice9GetMapperEv@Base 2.8.7
 _ZN13vtkObjectBase16CollectRevisionsERSo@Base 2.8.7
 _ZN14vtkGDCMTesting14GetVTKDataRootEv@Base 2.8.7
 _ZN14vtkGDCMTesting15GetGDCMDataRootEv@Base 2.8.7
 _ZN14vtkGDCMTesting15GetMD5MetaImageEj@Base 2.8.7
 _ZN14vtkGDCMTesting17GetMHDMD5FromFileEPKc@Base 2.8.7
 _ZN14vtkGDCMTesting17GetRAWMD5FromFileEPKc@Base 2.8.7
 _ZN14vtkGDCMTesting24GetNumberOfMD5MetaImagesEv@Base 2.8.7
 _ZN14vtkGDCMTesting3IsAEPKc@Base 2.8.7
 _ZN14vtkGDCMTesting3NewEv@Base 2.8.7
 _ZN14vtkGDCMTesting9PrintSelfERSo9vtkIndent@Base 2.8.7
 _ZN14vtkGDCMTestingC1Ev@Base 2.8.7
 _ZN14vtkGDCMTestingC2Ev@Base 2.8.7
 _ZN14vtkGDCMTestingD0Ev@Base 2.8.7
 _ZN14vtkGDCMTestingD1Ev@Base 2.8.7
 _ZN14vtkGDCMTestingD2Ev@Base 2.8.7
 _ZN14vtkImageWriter11SetFileNameEPKc@Base 2.8.7
 _ZN14vtkImageWriter13GetFilePrefixEv@Base 2.8.7
 _ZN14vtkImageWriter13SetFilePrefixEPKc@Base 2.8.7
 _ZN14vtkImageWriter14GetFilePatternEv@Base 2.8.7
 _ZN14vtkImageWriter14SetFilePatternEPKc@Base 2.8.7
 _ZN14vtkImageWriter15WriteFileHeaderEPSt14basic_ofstreamIcSt11char_traitsIcEEP12vtkImageDataPi@Base 2.8.7
 _ZN14vtkImageWriter16WriteFileTrailerEPSt14basic_ofstreamIcSt11char_traitsIcEEP12vtkImageData@Base 2.8.7
 _ZN14vtkImageWriter21GetFileDimensionalityEv@Base 2.8.7
 _ZN14vtkImageWriter21SetFileDimensionalityEi@Base 2.8.7
 _ZN14vtkLookupTable11GetHueRangeEPd@Base 2.8.7
 _ZN14vtkLookupTable11GetHueRangeERdS0_@Base 2.8.7
 _ZN14vtkLookupTable11GetHueRangeEv@Base 2.8.7
 _ZN14vtkLookupTable11GetNanColorEPd@Base 2.8.7
 _ZN14vtkLookupTable11GetNanColorERdS0_S0_S0_@Base 2.8.7
 _ZN14vtkLookupTable11GetNanColorEv@Base 2.8.7
 _ZN14vtkLookupTable11SetHueRangeEdd@Base 2.8.7
 _ZN14vtkLookupTable11SetNanColorEPd@Base 2.8.7
 _ZN14vtkLookupTable11SetNanColorEdddd@Base 2.8.7
 _ZN14vtkLookupTable13GetAlphaRangeEPd@Base 2.8.7
 _ZN14vtkLookupTable13GetAlphaRangeERdS0_@Base 2.8.7
 _ZN14vtkLookupTable13GetAlphaRangeEv@Base 2.8.7
 _ZN14vtkLookupTable13GetTableRangeEPd@Base 2.8.7
 _ZN14vtkLookupTable13GetTableRangeEv@Base 2.8.7
 _ZN14vtkLookupTable13GetValueRangeEPd@Base 2.8.7
 _ZN14vtkLookupTable13GetValueRangeERdS0_@Base 2.8.7
 _ZN14vtkLookupTable13GetValueRangeEv@Base 2.8.7
 _ZN14vtkLookupTable13SetAlphaRangeEdd@Base 2.8.7
 _ZN14vtkLookupTable13SetValueRangeEdd@Base 2.8.7
 _ZN14vtkLookupTable13UsingLogScaleEv@Base 2.8.7
 _ZN14vtkLookupTable17GetNumberOfColorsEv@Base 2.8.7
 _ZN14vtkLookupTable17SetNumberOfColorsEx@Base 2.8.7
 _ZN14vtkLookupTable18GetAboveRangeColorEPd@Base 2.8.7
 _ZN14vtkLookupTable18GetAboveRangeColorERdS0_S0_S0_@Base 2.8.7
 _ZN14vtkLookupTable18GetAboveRangeColorEv@Base 2.8.7
 _ZN14vtkLookupTable18GetBelowRangeColorEPd@Base 2.8.7
 _ZN14vtkLookupTable18GetBelowRangeColorERdS0_S0_S0_@Base 2.8.7
 _ZN14vtkLookupTable18GetBelowRangeColorEv@Base 2.8.7
 _ZN14vtkLookupTable18GetSaturationRangeEPd@Base 2.8.7
 _ZN14vtkLookupTable18GetSaturationRangeERdS0_@Base 2.8.7
 _ZN14vtkLookupTable18GetSaturationRangeEv@Base 2.8.7
 _ZN14vtkLookupTable18SetAboveRangeColorEPd@Base 2.8.7
 _ZN14vtkLookupTable18SetAboveRangeColorEdddd@Base 2.8.7
 _ZN14vtkLookupTable18SetBelowRangeColorEPd@Base 2.8.7
 _ZN14vtkLookupTable18SetBelowRangeColorEdddd@Base 2.8.7
 _ZN14vtkLookupTable18SetSaturationRangeEdd@Base 2.8.7
 _ZN14vtkLookupTable20UseAboveRangeColorOnEv@Base 2.8.7
 _ZN14vtkLookupTable20UseBelowRangeColorOnEv@Base 2.8.7
 _ZN14vtkLookupTable21GetUseAboveRangeColorEv@Base 2.8.7
 _ZN14vtkLookupTable21GetUseBelowRangeColorEv@Base 2.8.7
 _ZN14vtkLookupTable21SetUseAboveRangeColorEi@Base 2.8.7
 _ZN14vtkLookupTable21SetUseBelowRangeColorEi@Base 2.8.7
 _ZN14vtkLookupTable21UseAboveRangeColorOffEv@Base 2.8.7
 _ZN14vtkLookupTable21UseBelowRangeColorOffEv@Base 2.8.7
 _ZN14vtkLookupTable25GetNumberOfColorsMaxValueEv@Base 2.8.7
 _ZN14vtkLookupTable25GetNumberOfColorsMinValueEv@Base 2.8.7
 _ZN14vtkLookupTable7GetRampEv@Base 2.8.7
 _ZN14vtkLookupTable7SetRampEi@Base 2.8.7
 _ZN14vtkLookupTable8GetRangeEv@Base 2.8.7
 _ZN14vtkLookupTable8GetScaleEv@Base 2.8.7
 _ZN14vtkLookupTable8GetTableEv@Base 2.8.7
 _ZN14vtkLookupTable8SetRangeEdd@Base 2.8.7
 _ZN15StructureSetROID1Ev@Base 2.8.7
 _ZN15StructureSetROID2Ev@Base 2.8.7
 _ZN15vtkImageReader211GetFileNameEv@Base 2.8.7
 _ZN15vtkImageReader211SwapBytesOnEv@Base 2.8.7
 _ZN15vtkImageReader212GetFileNamesEv@Base 2.8.7
 _ZN15vtkImageReader212GetSwapBytesEv@Base 2.8.7
 _ZN15vtkImageReader212SetSwapBytesEi@Base 2.8.7
 _ZN15vtkImageReader212SwapBytesOffEv@Base 2.8.7
 _ZN15vtkImageReader213GetDataExtentEPi@Base 2.8.7
 _ZN15vtkImageReader213GetDataExtentERiS0_S0_S0_S0_S0_@Base 2.8.7
 _ZN15vtkImageReader213GetDataExtentEv@Base 2.8.7
 _ZN15vtkImageReader213GetDataOriginEPd@Base 2.8.7
 _ZN15vtkImageReader213GetDataOriginERdS0_S0_@Base 2.8.7
 _ZN15vtkImageReader213GetDataOriginEv@Base 2.8.7
 _ZN15vtkImageReader213SetDataExtentEPi@Base 2.8.7
 _ZN15vtkImageReader213SetDataExtentEiiiiii@Base 2.8.7
 _ZN15vtkImageReader213SetDataOriginEPd@Base 2.8.7
 _ZN15vtkImageReader213SetDataOriginEddd@Base 2.8.7
 _ZN15vtkImageReader214GetDataSpacingEPd@Base 2.8.7
 _ZN15vtkImageReader214GetDataSpacingERdS0_S0_@Base 2.8.7
 _ZN15vtkImageReader214GetDataSpacingEv@Base 2.8.7
 _ZN15vtkImageReader214SetDataSpacingEPd@Base 2.8.7
 _ZN15vtkImageReader214SetDataSpacingEddd@Base 2.8.7
 _ZN15vtkImageReader215FileLowerLeftOnEv@Base 2.8.7
 _ZN15vtkImageReader215GetMemoryBufferEv@Base 2.8.7
 _ZN15vtkImageReader216FileLowerLeftOffEv@Base 2.8.7
 _ZN15vtkImageReader216GetFileLowerLeftEv@Base 2.8.7
 _ZN15vtkImageReader216SetFileLowerLeftEi@Base 2.8.7
 _ZN15vtkImageReader217GetDataIncrementsEPm@Base 2.8.7
 _ZN15vtkImageReader217GetDataIncrementsEv@Base 2.8.7
 _ZN15vtkImageReader217GetDataScalarTypeEv@Base 2.8.7
 _ZN15vtkImageReader219GetInternalFileNameEv@Base 2.8.7
 _ZN15vtkImageReader221SetFileDimensionalityEi@Base 2.8.7
 _ZN15vtkImageReader222GetFileNameSliceOffsetEv@Base 2.8.7
 _ZN15vtkImageReader222SetDataScalarTypeToIntEv@Base 2.8.7
 _ZN15vtkImageReader222SetFileNameSliceOffsetEi@Base 2.8.7
 _ZN15vtkImageReader223GetFileNameSliceSpacingEv@Base 2.8.7
 _ZN15vtkImageReader223SetDataScalarTypeToCharEv@Base 2.8.7
 _ZN15vtkImageReader223SetFileNameSliceSpacingEi@Base 2.8.7
 _ZN15vtkImageReader224SetDataScalarTypeToFloatEv@Base 2.8.7
 _ZN15vtkImageReader224SetDataScalarTypeToShortEv@Base 2.8.7
 _ZN15vtkImageReader225SetDataScalarTypeToDoubleEv@Base 2.8.7
 _ZN15vtkImageReader227GetNumberOfScalarComponentsEv@Base 2.8.7
 _ZN15vtkImageReader227SetNumberOfScalarComponentsEi@Base 2.8.7
 _ZN15vtkImageReader229SetDataScalarTypeToSignedCharEv@Base 2.8.7
 _ZN15vtkImageReader230SetDataScalarTypeToUnsignedIntEv@Base 2.8.7
 _ZN15vtkImageReader231SetDataScalarTypeToUnsignedCharEv@Base 2.8.7
 _ZN15vtkImageReader232SetDataScalarTypeToUnsignedShortEv@Base 2.8.7
 _ZN15vtkRenderWindow17SetNumberOfLayersEi@Base 2.8.7
 _ZN16vtkAbstractArray21SetNumberOfComponentsEi@Base 2.8.7
 _ZN16vtkAbstractArray7SetNameEPKc@Base 2.8.7
 _ZN16vtkImageRGBToYBR15ThreadedExecuteEP12vtkImageDataS1_Pii@Base 2.8.7
 _ZN16vtkImageRGBToYBR3IsAEPKc@Base 2.8.7
 _ZN16vtkImageRGBToYBR3NewEv@Base 2.8.7
 _ZN16vtkImageRGBToYBR9PrintSelfERSo9vtkIndent@Base 2.8.7
 _ZN16vtkImageRGBToYBRC1Ev@Base 2.8.7
 _ZN16vtkImageRGBToYBRC2Ev@Base 2.8.7
 _ZN16vtkImageRGBToYBRD0Ev@Base 2.8.7
 _ZN16vtkImageRGBToYBRD1Ev@Base 2.8.7
 _ZN16vtkImageRGBToYBRD2Ev@Base 2.8.7
 _ZN16vtkImageYBRToRGB15ThreadedExecuteEP12vtkImageDataS1_Pii@Base 2.8.7
 _ZN16vtkImageYBRToRGB3IsAEPKc@Base 2.8.7
 _ZN16vtkImageYBRToRGB3NewEv@Base 2.8.7
 _ZN16vtkImageYBRToRGB9PrintSelfERSo9vtkIndent@Base 2.8.7
 _ZN16vtkImageYBRToRGBC1Ev@Base 2.8.7
 _ZN16vtkImageYBRToRGBC2Ev@Base 2.8.7
 _ZN16vtkImageYBRToRGBD0Ev@Base 2.8.7
 _ZN16vtkImageYBRToRGBD1Ev@Base 2.8.7
 _ZN16vtkImageYBRToRGBD2Ev@Base 2.8.7
 _ZN16vtkLookupTable1622SetNumberOfTableValuesEx@Base 2.8.7
 _ZN16vtkLookupTable1623MapScalarsThroughTable2EPvPhiiii@Base 2.8.7
 _ZN16vtkLookupTable163IsAEPKc@Base 2.8.7
 _ZN16vtkLookupTable163NewEv@Base 2.8.7
 _ZN16vtkLookupTable165BuildEv@Base 2.8.7
 _ZN16vtkLookupTable169PrintSelfERSo9vtkIndent@Base 2.8.7
 _ZN16vtkLookupTable16C1Eii@Base 2.8.7
 _ZN16vtkLookupTable16C2Eii@Base 2.8.7
 _ZN16vtkLookupTable16D0Ev@Base 2.8.7
 _ZN16vtkLookupTable16D1Ev@Base 2.8.7
 _ZN16vtkLookupTable16D2Ev@Base 2.8.7
 _ZN18vtkGDCMImageReader10GetOverlayEi@Base 2.8.7
 _ZN18vtkGDCMImageReader11CanReadFileEPKc@Base 2.8.7
 _ZN18vtkGDCMImageReader11LossyFlagOnEv@Base 2.8.7
 _ZN18vtkGDCMImageReader11RequestDataEP14vtkInformationPP20vtkInformationVectorS3_@Base 2.8.7
 _ZN18vtkGDCMImageReader12GetIconImageEv@Base 2.8.7
 _ZN18vtkGDCMImageReader12GetLossyFlagEv@Base 2.8.7
 _ZN18vtkGDCMImageReader12LossyFlagOffEv@Base 2.8.7
 _ZN18vtkGDCMImageReader12SetLossyFlagEi@Base 2.8.7
 _ZN18vtkGDCMImageReader13GetFilePrefixEv@Base 2.8.7
 _ZN18vtkGDCMImageReader13SetFilePrefixEPKc@Base 2.8.7
 _ZN18vtkGDCMImageReader14GetFilePatternEv@Base 2.8.7
 _ZN18vtkGDCMImageReader14GetImageFormatEv@Base 2.8.7
 _ZN18vtkGDCMImageReader14GetOverlayPortEi@Base 2.8.7
 _ZN18vtkGDCMImageReader14LoadOverlaysOnEv@Base 2.8.7
 _ZN18vtkGDCMImageReader14LoadSingleFileEPKcPcRm@Base 2.8.7
 _ZN18vtkGDCMImageReader14ProcessRequestEP14vtkInformationPP20vtkInformationVectorS3_@Base 2.8.7
 _ZN18vtkGDCMImageReader14SetFilePatternEPKc@Base 2.8.7
 _ZN18vtkGDCMImageReader15ApplyYBRToRGBOnEv@Base 2.8.7
 _ZN18vtkGDCMImageReader15GetLoadOverlaysEv@Base 2.8.7
 _ZN18vtkGDCMImageReader15LoadIconImageOnEv@Base 2.8.7
 _ZN18vtkGDCMImageReader15LoadOverlaysOffEv@Base 2.8.7
 _ZN18vtkGDCMImageReader15SetLoadOverlaysEi@Base 2.8.7
 _ZN18vtkGDCMImageReader16ApplyYBRToRGBOffEv@Base 2.8.7
 _ZN18vtkGDCMImageReader16GetApplyYBRToRGBEv@Base 2.8.7
 _ZN18vtkGDCMImageReader16GetIconImagePortEv@Base 2.8.7
 _ZN18vtkGDCMImageReader16GetLoadIconImageEv@Base 2.8.7
 _ZN18vtkGDCMImageReader16LoadIconImageOffEv@Base 2.8.7
 _ZN18vtkGDCMImageReader16SetApplyYBRToRGBEi@Base 2.8.7
 _ZN18vtkGDCMImageReader16SetLoadIconImageEi@Base 2.8.7
 _ZN18vtkGDCMImageReader17GetFileExtensionsEv@Base 2.8.7
 _ZN18vtkGDCMImageReader17RequestDataCompatEv@Base 2.8.7
 _ZN18vtkGDCMImageReader18ApplyLookupTableOnEv@Base 2.8.7
 _ZN18vtkGDCMImageReader18GetDescriptiveNameEv@Base 2.8.7
 _ZN18vtkGDCMImageReader18RequestInformationEP14vtkInformationPP20vtkInformationVectorS3_@Base 2.8.7
 _ZN18vtkGDCMImageReader19ApplyLookupTableOffEv@Base 2.8.7
 _ZN18vtkGDCMImageReader19GetApplyLookupTableEv@Base 2.8.7
 _ZN18vtkGDCMImageReader19GetDirectionCosinesEv@Base 2.8.7
 _ZN18vtkGDCMImageReader19GetNumberOfOverlaysEv@Base 2.8.7
 _ZN18vtkGDCMImageReader19SetApplyLookupTableEi@Base 2.8.7
 _ZN18vtkGDCMImageReader21GetNumberOfIconImagesEv@Base 2.8.7
 _ZN18vtkGDCMImageReader22GetPlanarConfigurationEv@Base 2.8.7
 _ZN18vtkGDCMImageReader23GetImagePositionPatientEPd@Base 2.8.7
 _ZN18vtkGDCMImageReader23GetImagePositionPatientERdS0_S0_@Base 2.8.7
 _ZN18vtkGDCMImageReader23GetImagePositionPatientEv@Base 2.8.7
 _ZN18vtkGDCMImageReader24RequestInformationCompatEv@Base 2.8.7
 _ZN18vtkGDCMImageReader25SetMedicalImagePropertiesEP25vtkMedicalImageProperties@Base 2.8.7
 _ZN18vtkGDCMImageReader26GetImageOrientationPatientEPd@Base 2.8.7
 _ZN18vtkGDCMImageReader26GetImageOrientationPatientERdS0_S0_S0_S0_S0_@Base 2.8.7
 _ZN18vtkGDCMImageReader26GetImageOrientationPatientEv@Base 2.8.7
 _ZN18vtkGDCMImageReader26SetImageOrientationPatientEPd@Base 2.8.7
 _ZN18vtkGDCMImageReader26SetImageOrientationPatientEdddddd@Base 2.8.7
 _ZN18vtkGDCMImageReader27FillMedicalImageInformationERKN4gdcm11ImageReaderE@Base 2.8.7
 _ZN18vtkGDCMImageReader3IsAEPKc@Base 2.8.7
 _ZN18vtkGDCMImageReader3NewEv@Base 2.8.7
 _ZN18vtkGDCMImageReader8GetCurveEv@Base 2.8.7
 _ZN18vtkGDCMImageReader8GetScaleEv@Base 2.8.7
 _ZN18vtkGDCMImageReader8GetShiftEv@Base 2.8.7
 _ZN18vtkGDCMImageReader8SetCurveEP11vtkPolyData@Base 2.8.7
 _ZN18vtkGDCMImageReader9PrintSelfERSo9vtkIndent@Base 2.8.7
 _ZN18vtkGDCMImageReaderC1Ev@Base 2.8.7
 _ZN18vtkGDCMImageReaderC2Ev@Base 2.8.7
 _ZN18vtkGDCMImageReaderD0Ev@Base 2.8.7
 _ZN18vtkGDCMImageReaderD1Ev@Base 2.8.7
 _ZN18vtkGDCMImageReaderD2Ev@Base 2.8.7
 _ZN18vtkGDCMImageWriter11GetFileNameEv@Base 2.8.7
 _ZN18vtkGDCMImageWriter11GetStudyUIDEv@Base 2.8.7
 _ZN18vtkGDCMImageWriter11LossyFlagOnEv@Base 2.8.7
 _ZN18vtkGDCMImageWriter11RequestDataEP14vtkInformationPP20vtkInformationVectorS3_@Base 2.8.7
 _ZN18vtkGDCMImageWriter11SetStudyUIDEPKc@Base 2.8.7
 _ZN18vtkGDCMImageWriter12GetFileNamesEv@Base 2.8.7
 _ZN18vtkGDCMImageWriter12GetLossyFlagEv@Base 2.8.7
 _ZN18vtkGDCMImageWriter12GetSeriesUIDEv@Base 2.8.7
 _ZN18vtkGDCMImageWriter12LossyFlagOffEv@Base 2.8.7
 _ZN18vtkGDCMImageWriter12SetFileNamesEP14vtkStringArray@Base 2.8.7
 _ZN18vtkGDCMImageWriter12SetLossyFlagEi@Base 2.8.7
 _ZN18vtkGDCMImageWriter12SetSeriesUIDEPKc@Base 2.8.7
 _ZN18vtkGDCMImageWriter13WriteGDCMDataEP12vtkImageDatai@Base 2.8.7
 _ZN18vtkGDCMImageWriter14GetImageFormatEv@Base 2.8.7
 _ZN18vtkGDCMImageWriter14SetImageFormatEi@Base 2.8.7
 _ZN18vtkGDCMImageWriter15FileLowerLeftOnEv@Base 2.8.7
 _ZN18vtkGDCMImageWriter16FileLowerLeftOffEv@Base 2.8.7
 _ZN18vtkGDCMImageWriter16GetFileLowerLeftEv@Base 2.8.7
 _ZN18vtkGDCMImageWriter16SetFileLowerLeftEi@Base 2.8.7
 _ZN18vtkGDCMImageWriter17GetFileExtensionsEv@Base 2.8.7
 _ZN18vtkGDCMImageWriter18GetCompressionTypeEv@Base 2.8.7
 _ZN18vtkGDCMImageWriter18GetDescriptiveNameEv@Base 2.8.7
 _ZN18vtkGDCMImageWriter18RequestInformationEP14vtkInformationPP20vtkInformationVectorS3_@Base 2.8.7
 _ZN18vtkGDCMImageWriter18SetCompressionTypeEi@Base 2.8.7
 _ZN18vtkGDCMImageWriter19GetDirectionCosinesEv@Base 2.8.7
 _ZN18vtkGDCMImageWriter19RequestUpdateExtentEP14vtkInformationPP20vtkInformationVectorS3_@Base 2.8.7
 _ZN18vtkGDCMImageWriter19SetDirectionCosinesEP12vtkMatrix4x4@Base 2.8.7
 _ZN18vtkGDCMImageWriter22GetPlanarConfigurationEv@Base 2.8.7
 _ZN18vtkGDCMImageWriter22SetPlanarConfigurationEi@Base 2.8.7
 _ZN18vtkGDCMImageWriter24FillInputPortInformationEiP14vtkInformation@Base 2.8.7
 _ZN18vtkGDCMImageWriter25GetMedicalImagePropertiesEv@Base 2.8.7
 _ZN18vtkGDCMImageWriter25SetMedicalImagePropertiesEP25vtkMedicalImageProperties@Base 2.8.7
 _ZN18vtkGDCMImageWriter3IsAEPKc@Base 2.8.7
 _ZN18vtkGDCMImageWriter3NewEv@Base 2.8.7
 _ZN18vtkGDCMImageWriter46SetDirectionCosinesFromImageOrientationPatientEPKd@Base 2.8.7
 _ZN18vtkGDCMImageWriter5WriteEv@Base 2.8.7
 _ZN18vtkGDCMImageWriter8GetScaleEv@Base 2.8.7
 _ZN18vtkGDCMImageWriter8GetShiftEv@Base 2.8.7
 _ZN18vtkGDCMImageWriter8SetScaleEd@Base 2.8.7
 _ZN18vtkGDCMImageWriter8SetShiftEd@Base 2.8.7
 _ZN18vtkGDCMImageWriter9PrintSelfERSo9vtkIndent@Base 2.8.7
 _ZN18vtkGDCMImageWriterC1Ev@Base 2.8.7
 _ZN18vtkGDCMImageWriterC2Ev@Base 2.8.7
 _ZN18vtkGDCMImageWriterD0Ev@Base 2.8.7
 _ZN18vtkGDCMImageWriterD1Ev@Base 2.8.7
 _ZN18vtkGDCMImageWriterD2Ev@Base 2.8.7
 _ZN18vtkInteractorStyle32GetAutoAdjustCameraClippingRangeEv@Base 2.8.7
 _ZN18vtkScalarsToColors13GetVectorModeEv@Base 2.8.7
 _ZN18vtkScalarsToColors13GetVectorSizeEv@Base 2.8.7
 _ZN18vtkScalarsToColors13SetVectorModeEi@Base 2.8.7
 _ZN18vtkScalarsToColors13SetVectorSizeEi@Base 2.8.7
 _ZN18vtkScalarsToColors14GetAnnotationsEv@Base 2.8.7
 _ZN18vtkScalarsToColors15IndexedLookupOnEv@Base 2.8.7
 _ZN18vtkScalarsToColors16GetIndexedLookupEv@Base 2.8.7
 _ZN18vtkScalarsToColors16IndexedLookupOffEv@Base 2.8.7
 _ZN18vtkScalarsToColors16SetIndexedLookupEi@Base 2.8.7
 _ZN18vtkScalarsToColors18GetAnnotatedValuesEv@Base 2.8.7
 _ZN18vtkScalarsToColors18GetVectorComponentEv@Base 2.8.7
 _ZN18vtkScalarsToColors18SetVectorComponentEi@Base 2.8.7
 _ZN18vtkScalarsToColors5BuildEv@Base 2.8.7
 _ZN18vtkScalarsToColors8GetAlphaEv@Base 2.8.7
 _ZN19vtkGDCMImageReader210GetOverlayEi@Base 2.8.7
 _ZN19vtkGDCMImageReader211CanReadFileEPKc@Base 2.8.7
 _ZN19vtkGDCMImageReader211LossyFlagOnEv@Base 2.8.7
 _ZN19vtkGDCMImageReader211RequestDataEP14vtkInformationPP20vtkInformationVectorS3_@Base 2.8.7
 _ZN19vtkGDCMImageReader212GetIconImageEv@Base 2.8.7
 _ZN19vtkGDCMImageReader212GetLossyFlagEv@Base 2.8.7
 _ZN19vtkGDCMImageReader212LossyFlagOffEv@Base 2.8.7
 _ZN19vtkGDCMImageReader212SetLossyFlagEi@Base 2.8.7
 _ZN19vtkGDCMImageReader213GetFilePrefixEv@Base 2.8.7
 _ZN19vtkGDCMImageReader213SetFilePrefixEPKc@Base 2.8.7
 _ZN19vtkGDCMImageReader214GetFilePatternEv@Base 2.8.7
 _ZN19vtkGDCMImageReader214GetImageFormatEv@Base 2.8.7
 _ZN19vtkGDCMImageReader214GetOverlayPortEi@Base 2.8.7
 _ZN19vtkGDCMImageReader214LoadOverlaysOnEv@Base 2.8.7
 _ZN19vtkGDCMImageReader214LoadSingleFileEPKcPcRm@Base 2.8.7
 _ZN19vtkGDCMImageReader214ProcessRequestEP14vtkInformationPP20vtkInformationVectorS3_@Base 2.8.7
 _ZN19vtkGDCMImageReader214SetFilePatternEPKc@Base 2.8.7
 _ZN19vtkGDCMImageReader215ApplyYBRToRGBOnEv@Base 2.8.7
 _ZN19vtkGDCMImageReader215GetLoadOverlaysEv@Base 2.8.7
 _ZN19vtkGDCMImageReader215LoadIconImageOnEv@Base 2.8.7
 _ZN19vtkGDCMImageReader215LoadOverlaysOffEv@Base 2.8.7
 _ZN19vtkGDCMImageReader215SetLoadOverlaysEi@Base 2.8.7
 _ZN19vtkGDCMImageReader216ApplyYBRToRGBOffEv@Base 2.8.7
 _ZN19vtkGDCMImageReader216GetApplyYBRToRGBEv@Base 2.8.7
 _ZN19vtkGDCMImageReader216GetIconImagePortEv@Base 2.8.7
 _ZN19vtkGDCMImageReader216GetLoadIconImageEv@Base 2.8.7
 _ZN19vtkGDCMImageReader216LoadIconImageOffEv@Base 2.8.7
 _ZN19vtkGDCMImageReader216SetApplyYBRToRGBEi@Base 2.8.7
 _ZN19vtkGDCMImageReader216SetLoadIconImageEi@Base 2.8.7
 _ZN19vtkGDCMImageReader217GetFileExtensionsEv@Base 2.8.7
 _ZN19vtkGDCMImageReader217RequestDataCompatEv@Base 2.8.7
 _ZN19vtkGDCMImageReader218ApplyLookupTableOnEv@Base 2.8.7
 _ZN19vtkGDCMImageReader218GetDescriptiveNameEv@Base 2.8.7
 _ZN19vtkGDCMImageReader218RequestInformationEP14vtkInformationPP20vtkInformationVectorS3_@Base 2.8.7
 _ZN19vtkGDCMImageReader219ApplyLookupTableOffEv@Base 2.8.7
 _ZN19vtkGDCMImageReader219GetApplyLookupTableEv@Base 2.8.7
 _ZN19vtkGDCMImageReader219GetDirectionCosinesEv@Base 2.8.7
 _ZN19vtkGDCMImageReader219GetNumberOfOverlaysEv@Base 2.8.7
 _ZN19vtkGDCMImageReader219SetApplyLookupTableEi@Base 2.8.7
 _ZN19vtkGDCMImageReader221GetNumberOfIconImagesEv@Base 2.8.7
 _ZN19vtkGDCMImageReader222GetPlanarConfigurationEv@Base 2.8.7
 _ZN19vtkGDCMImageReader223GetImagePositionPatientEPd@Base 2.8.7
 _ZN19vtkGDCMImageReader223GetImagePositionPatientERdS0_S0_@Base 2.8.7
 _ZN19vtkGDCMImageReader223GetImagePositionPatientEv@Base 2.8.7
 _ZN19vtkGDCMImageReader224RequestInformationCompatEv@Base 2.8.7
 _ZN19vtkGDCMImageReader225SetMedicalImagePropertiesEP25vtkMedicalImageProperties@Base 2.8.7
 _ZN19vtkGDCMImageReader226GetImageOrientationPatientEPd@Base 2.8.7
 _ZN19vtkGDCMImageReader226GetImageOrientationPatientERdS0_S0_S0_S0_S0_@Base 2.8.7
 _ZN19vtkGDCMImageReader226GetImageOrientationPatientEv@Base 2.8.7
 _ZN19vtkGDCMImageReader226SetImageOrientationPatientEPd@Base 2.8.7
 _ZN19vtkGDCMImageReader226SetImageOrientationPatientEdddddd@Base 2.8.7
 _ZN19vtkGDCMImageReader227FillMedicalImageInformationERKN4gdcm11ImageReaderE@Base 2.8.7
 _ZN19vtkGDCMImageReader23IsAEPKc@Base 2.8.7
 _ZN19vtkGDCMImageReader23NewEv@Base 2.8.7
 _ZN19vtkGDCMImageReader28GetCurveEv@Base 2.8.7
 _ZN19vtkGDCMImageReader28GetScaleEv@Base 2.8.7
 _ZN19vtkGDCMImageReader28GetShiftEv@Base 2.8.7
 _ZN19vtkGDCMImageReader28SetCurveEP11vtkPolyData@Base 2.8.7
 _ZN19vtkGDCMImageReader29PrintSelfERSo9vtkIndent@Base 2.8.7
 _ZN19vtkGDCMImageReader2C1Ev@Base 2.8.7
 _ZN19vtkGDCMImageReader2C2Ev@Base 2.8.7
 _ZN19vtkGDCMImageReader2D0Ev@Base 2.8.7
 _ZN19vtkGDCMImageReader2D1Ev@Base 2.8.7
 _ZN19vtkGDCMImageReader2D2Ev@Base 2.8.7
 _ZN19vtkIOImage_AutoInitD1Ev@Base 2.8.7
 _ZN19vtkIOImage_AutoInitD2Ev@Base 2.8.7
 _ZN19vtkImageColorViewer11GetPositionEv@Base 2.8.7
 _ZN19vtkImageColorViewer11GetRendererEv@Base 2.8.7
 _ZN19vtkImageColorViewer11GetSliceMaxEv@Base 2.8.7
 _ZN19vtkImageColorViewer11GetSliceMinEv@Base 2.8.7
 _ZN19vtkImageColorViewer11SetParentIdEPv@Base 2.8.7
 _ZN19vtkImageColorViewer11SetPositionEPi@Base 2.8.7
 _ZN19vtkImageColorViewer11SetPositionEii@Base 2.8.7
 _ZN19vtkImageColorViewer11SetRendererEP11vtkRenderer@Base 2.8.7
 _ZN19vtkImageColorViewer11SetWindowIdEPv@Base 2.8.7
 _ZN19vtkImageColorViewer12GetWholeZMaxEv@Base 2.8.7
 _ZN19vtkImageColorViewer12GetWholeZMinEv@Base 2.8.7
 _ZN19vtkImageColorViewer12SetDisplayIdEPv@Base 2.8.7
 _ZN19vtkImageColorViewer12SetInputDataEP12vtkImageData@Base 2.8.7
 _ZN19vtkImageColorViewer13GetColorLevelEv@Base 2.8.7
 _ZN19vtkImageColorViewer13GetImageActorEv@Base 2.8.7
 _ZN19vtkImageColorViewer13GetSliceRangeEPi@Base 2.8.7
 _ZN19vtkImageColorViewer13GetSliceRangeERiS0_@Base 2.8.7
 _ZN19vtkImageColorViewer13GetSliceRangeEv@Base 2.8.7
 _ZN19vtkImageColorViewer13GetWindowNameEv@Base 2.8.7
 _ZN19vtkImageColorViewer13SetColorLevelEd@Base 2.8.7
 _ZN19vtkImageColorViewer14GetColorWindowEv@Base 2.8.7
 _ZN19vtkImageColorViewer14GetWindowLevelEv@Base 2.8.7
 _ZN19vtkImageColorViewer14SetColorWindowEd@Base 2.8.7
 _ZN19vtkImageColorViewer15GetRenderWindowEv@Base 2.8.7
 _ZN19vtkImageColorViewer15InstallPipelineEv@Base 2.8.7
 _ZN19vtkImageColorViewer15SetRenderWindowEP15vtkRenderWindow@Base 2.8.7
 _ZN19vtkImageColorViewer15SetupInteractorEP25vtkRenderWindowInteractor@Base 2.8.7
 _ZN19vtkImageColorViewer17GetInputAlgorithmEv@Base 2.8.7
 _ZN19vtkImageColorViewer17UnInstallPipelineEv@Base 2.8.7
 _ZN19vtkImageColorViewer17UpdateOrientationEv@Base 2.8.7
 _ZN19vtkImageColorViewer18AddInputConnectionEP18vtkAlgorithmOutput@Base 2.8.7
 _ZN19vtkImageColorViewer18GetInteractorStyleEv@Base 2.8.7
 _ZN19vtkImageColorViewer18SetInputConnectionEP18vtkAlgorithmOutput@Base 2.8.7
 _ZN19vtkImageColorViewer19GetInputInformationEv@Base 2.8.7
 _ZN19vtkImageColorViewer19GetSliceOrientationEv@Base 2.8.7
 _ZN19vtkImageColorViewer19SetSliceOrientationEi@Base 2.8.7
 _ZN19vtkImageColorViewer19UpdateDisplayExtentEv@Base 2.8.7
 _ZN19vtkImageColorViewer20GetOverlayVisibilityEv@Base 2.8.7
 _ZN19vtkImageColorViewer20OffScreenRenderingOnEv@Base 2.8.7
 _ZN19vtkImageColorViewer20SetOverlayVisibilityEd@Base 2.8.7
 _ZN19vtkImageColorViewer21GetOffScreenRenderingEv@Base 2.8.7
 _ZN19vtkImageColorViewer21OffScreenRenderingOffEv@Base 2.8.7
 _ZN19vtkImageColorViewer21SetOffScreenRenderingEi@Base 2.8.7
 _ZN19vtkImageColorViewer23SetSliceOrientationToXYEv@Base 2.8.7
 _ZN19vtkImageColorViewer23SetSliceOrientationToXZEv@Base 2.8.7
 _ZN19vtkImageColorViewer23SetSliceOrientationToYZEv@Base 2.8.7
 _ZN19vtkImageColorViewer3IsAEPKc@Base 2.8.7
 _ZN19vtkImageColorViewer3NewEv@Base 2.8.7
 _ZN19vtkImageColorViewer6RenderEv@Base 2.8.7
 _ZN19vtkImageColorViewer7GetSizeEv@Base 2.8.7
 _ZN19vtkImageColorViewer7SetSizeEPi@Base 2.8.7
 _ZN19vtkImageColorViewer7SetSizeEii@Base 2.8.7
 _ZN19vtkImageColorViewer8AddInputEP12vtkImageData@Base 2.8.7
 _ZN19vtkImageColorViewer8GetInputEv@Base 2.8.7
 _ZN19vtkImageColorViewer8GetSliceEv@Base 2.8.7
 _ZN19vtkImageColorViewer8SetSliceEi@Base 2.8.7
 _ZN19vtkImageColorViewer9GetZSliceEv@Base 2.8.7
 _ZN19vtkImageColorViewer9PrintSelfERSo9vtkIndent@Base 2.8.7
 _ZN19vtkImageColorViewer9SetZSliceEi@Base 2.8.7
 _ZN19vtkImageColorViewerC1Ev@Base 2.8.7
 _ZN19vtkImageColorViewerC2Ev@Base 2.8.7
 _ZN19vtkImageColorViewerD0Ev@Base 2.8.7
 _ZN19vtkImageColorViewerD1Ev@Base 2.8.7
 _ZN19vtkImageColorViewerD2Ev@Base 2.8.7
 _ZN19vtkImageMapToColors11GetNaNColorEPh@Base 2.8.7
 _ZN19vtkImageMapToColors11GetNaNColorERhS0_S0_S0_@Base 2.8.7
 _ZN19vtkImageMapToColors11GetNaNColorEv@Base 2.8.7
 _ZN19vtkImageMapToColors11SetNaNColorEPh@Base 2.8.7
 _ZN19vtkImageMapToColors11SetNaNColorEhhhh@Base 2.8.7
 _ZN19vtkImageMapToColors14GetLookupTableEv@Base 2.8.7
 _ZN19vtkImageMapToColors15GetOutputFormatEv@Base 2.8.7
 _ZN19vtkImageMapToColors15SetOutputFormatEi@Base 2.8.7
 _ZN19vtkImageMapToColors18GetActiveComponentEv@Base 2.8.7
 _ZN19vtkImageMapToColors18SetActiveComponentEi@Base 2.8.7
 _ZN19vtkImageMapToColors19PassAlphaToOutputOnEv@Base 2.8.7
 _ZN19vtkImageMapToColors20GetPassAlphaToOutputEv@Base 2.8.7
 _ZN19vtkImageMapToColors20PassAlphaToOutputOffEv@Base 2.8.7
 _ZN19vtkImageMapToColors20SetPassAlphaToOutputEi@Base 2.8.7
 _ZN20vtkDataArrayTemplateIxE8GetValueEx@Base 2.8.7
 _ZN21vtkGDCMPolyDataReader11GetFileNameEv@Base 2.8.7
 _ZN21vtkGDCMPolyDataReader11RequestDataEP14vtkInformationPP20vtkInformationVectorS3_@Base 2.8.7
 _ZN21vtkGDCMPolyDataReader11SetFileNameEPKc@Base 2.8.7
 _ZN21vtkGDCMPolyDataReader18RequestInformationEP14vtkInformationPP20vtkInformationVectorS3_@Base 2.8.7
 _ZN21vtkGDCMPolyDataReader24GetRTStructSetPropertiesEv@Base 2.8.7
 _ZN21vtkGDCMPolyDataReader25GetMedicalImagePropertiesEv@Base 2.8.7
 _ZN21vtkGDCMPolyDataReader27FillMedicalImageInformationERKN4gdcm6ReaderE@Base 2.8.7
 _ZN21vtkGDCMPolyDataReader33RequestData_RTStructureSetStorageERKN4gdcm6ReaderEP20vtkInformationVector@Base 2.8.7
 _ZN21vtkGDCMPolyDataReader38RequestData_HemodynamicWaveformStorageERKN4gdcm6ReaderEP20vtkInformationVector@Base 2.8.7
 _ZN21vtkGDCMPolyDataReader3IsAEPKc@Base 2.8.7
 _ZN21vtkGDCMPolyDataReader3NewEv@Base 2.8.7
 _ZN21vtkGDCMPolyDataReader40RequestInformation_RTStructureSetStorageERKN4gdcm6ReaderE@Base 2.8.7
 _ZN21vtkGDCMPolyDataReader45RequestInformation_HemodynamicWaveformStorageERKN4gdcm6ReaderE@Base 2.8.7
 _ZN21vtkGDCMPolyDataReader9PrintSelfERSo9vtkIndent@Base 2.8.7
 _ZN21vtkGDCMPolyDataReaderC1Ev@Base 2.8.7
 _ZN21vtkGDCMPolyDataReaderC2Ev@Base 2.8.7
 _ZN21vtkGDCMPolyDataReaderD0Ev@Base 2.8.7
 _ZN21vtkGDCMPolyDataReaderD1Ev@Base 2.8.7
 _ZN21vtkGDCMPolyDataReaderD2Ev@Base 2.8.7
 _ZN21vtkGDCMPolyDataWriter17WriteRTSTRUCTDataERN4gdcm4FileEi@Base 2.8.7
 _ZN21vtkGDCMPolyDataWriter17WriteRTSTRUCTInfoERN4gdcm4FileE@Base 2.8.7
 _ZN21vtkGDCMPolyDataWriter21InitializeRTStructSetE12vtkStdStringS0_S0_P14vtkStringArrayS2_S2_@Base 2.8.7
 _ZN21vtkGDCMPolyDataWriter21SetNumberOfInputPortsEi@Base 2.8.7
 _ZN21vtkGDCMPolyDataWriter24SetRTStructSetPropertiesEP24vtkRTStructSetProperties@Base 2.8.7
 _ZN21vtkGDCMPolyDataWriter25SetMedicalImagePropertiesEP25vtkMedicalImageProperties@Base 2.8.7
 _ZN21vtkGDCMPolyDataWriter3IsAEPKc@Base 2.8.7
 _ZN21vtkGDCMPolyDataWriter3NewEv@Base 2.8.7
 _ZN21vtkGDCMPolyDataWriter9PrintSelfERSo9vtkIndent@Base 2.8.7
 _ZN21vtkGDCMPolyDataWriter9WriteDataEv@Base 2.8.7
 _ZN21vtkGDCMPolyDataWriterC1Ev@Base 2.8.7
 _ZN21vtkGDCMPolyDataWriterC2Ev@Base 2.8.7
 _ZN21vtkGDCMPolyDataWriterD0Ev@Base 2.8.7
 _ZN21vtkGDCMPolyDataWriterD1Ev@Base 2.8.7
 _ZN21vtkGDCMPolyDataWriterD2Ev@Base 2.8.7
 _ZN21vtkImageMapToColors1611RequestDataEP14vtkInformationPP20vtkInformationVectorS3_@Base 2.8.7
 _ZN21vtkImageMapToColors1614GetLookupTableEv@Base 2.8.7
 _ZN21vtkImageMapToColors1614SetLookupTableEP18vtkScalarsToColors@Base 2.8.7
 _ZN21vtkImageMapToColors1615GetOutputFormatEv@Base 2.8.7
 _ZN21vtkImageMapToColors1615SetOutputFormatEi@Base 2.8.7
 _ZN21vtkImageMapToColors1618GetActiveComponentEv@Base 2.8.7
 _ZN21vtkImageMapToColors1618RequestInformationEP14vtkInformationPP20vtkInformationVectorS3_@Base 2.8.7
 _ZN21vtkImageMapToColors1618SetActiveComponentEi@Base 2.8.7
 _ZN21vtkImageMapToColors1619PassAlphaToOutputOnEv@Base 2.8.7
 _ZN21vtkImageMapToColors1619ThreadedRequestDataEP14vtkInformationPP20vtkInformationVectorS3_PPP12vtkImageDataS7_Pii@Base 2.8.7
 _ZN21vtkImageMapToColors1620GetPassAlphaToOutputEv@Base 2.8.7
 _ZN21vtkImageMapToColors1620PassAlphaToOutputOffEv@Base 2.8.7
 _ZN21vtkImageMapToColors1620SetPassAlphaToOutputEi@Base 2.8.7
 _ZN21vtkImageMapToColors163IsAEPKc@Base 2.8.7
 _ZN21vtkImageMapToColors163NewEv@Base 2.8.7
 _ZN21vtkImageMapToColors168GetMTimeEv@Base 2.8.7
 _ZN21vtkImageMapToColors169PrintSelfERSo9vtkIndent@Base 2.8.7
 _ZN21vtkImageMapToColors16C1Ev@Base 2.8.7
 _ZN21vtkImageMapToColors16C2Ev@Base 2.8.7
 _ZN21vtkImageMapToColors16D0Ev@Base 2.8.7
 _ZN21vtkImageMapToColors16D1Ev@Base 2.8.7
 _ZN21vtkImageMapToColors16D2Ev@Base 2.8.7
 _ZN22vtkMedicalImageReader225GetMedicalImagePropertiesEv@Base 2.8.7
 _ZN23vtkInteractorStyleImage27GetWindowLevelStartPositionEv@Base 2.8.7
 _ZN23vtkInteractorStyleImage29GetWindowLevelCurrentPositionEv@Base 2.8.7
 _ZN24vtkRTStructSetProperties17GetSOPInstanceUIDEv@Base 2.8.7
 _ZN24vtkRTStructSetProperties17SetSOPInstanceUIDEPKc@Base 2.8.7
 _ZN24vtkRTStructSetProperties18AddStructureSetROIEiPKcS1_S1_S1_@Base 2.8.7
 _ZN24vtkRTStructSetProperties19GetStructureSetDateEv@Base 2.8.7
 _ZN24vtkRTStructSetProperties19GetStructureSetNameEv@Base 2.8.7
 _ZN24vtkRTStructSetProperties19GetStructureSetTimeEv@Base 2.8.7
 _ZN24vtkRTStructSetProperties19GetStudyInstanceUIDEv@Base 2.8.7
 _ZN24vtkRTStructSetProperties19SetStructureSetDateEPKc@Base 2.8.7
 _ZN24vtkRTStructSetProperties19SetStructureSetNameEPKc@Base 2.8.7
 _ZN24vtkRTStructSetProperties19SetStructureSetTimeEPKc@Base 2.8.7
 _ZN24vtkRTStructSetProperties19SetStudyInstanceUIDEPKc@Base 2.8.7
 _ZN24vtkRTStructSetProperties20GetSeriesInstanceUIDEv@Base 2.8.7
 _ZN24vtkRTStructSetProperties20GetStructureSetLabelEv@Base 2.8.7
 _ZN24vtkRTStructSetProperties20SetSeriesInstanceUIDEPKc@Base 2.8.7
 _ZN24vtkRTStructSetProperties20SetStructureSetLabelEPKc@Base 2.8.7
 _ZN24vtkRTStructSetProperties22GetStructureSetROINameEx@Base 2.8.7
 _ZN24vtkRTStructSetProperties24GetStructureSetROINumberEx@Base 2.8.7
 _ZN24vtkRTStructSetProperties27GetNumberOfStructureSetROIsEv@Base 2.8.7
 _ZN24vtkRTStructSetProperties29AddReferencedFrameOfReferenceEPKcS1_@Base 2.8.7
 _ZN24vtkRTStructSetProperties29AddStructureSetROIObservationEiiPKcS1_S1_@Base 2.8.7
 _ZN24vtkRTStructSetProperties29GetReferenceSeriesInstanceUIDEv@Base 2.8.7
 _ZN24vtkRTStructSetProperties29GetStructureSetROIDescriptionEx@Base 2.8.7
 _ZN24vtkRTStructSetProperties29SetReferenceSeriesInstanceUIDEPKc@Base 2.8.7
 _ZN24vtkRTStructSetProperties31GetReferenceFrameOfReferenceUIDEv@Base 2.8.7
 _ZN24vtkRTStructSetProperties31SetReferenceFrameOfReferenceUIDEPKc@Base 2.8.7
 _ZN24vtkRTStructSetProperties32GetStructureSetObservationNumberEx@Base 2.8.7
 _ZN24vtkRTStructSetProperties32GetStructureSetROIRefFrameRefUIDEx@Base 2.8.7
 _ZN24vtkRTStructSetProperties34GetStructureSetROIObservationLabelEx@Base 2.8.7
 _ZN24vtkRTStructSetProperties35GetStructureSetRTROIInterpretedTypeEx@Base 2.8.7
 _ZN24vtkRTStructSetProperties36AddContourReferencedFrameOfReferenceExPKcS1_@Base 2.8.7
 _ZN24vtkRTStructSetProperties37GetReferencedFrameOfReferenceClassUIDEx@Base 2.8.7
 _ZN24vtkRTStructSetProperties37GetStructureSetROIGenerationAlgorithmEx@Base 2.8.7
 _ZN24vtkRTStructSetProperties38GetNumberOfReferencedFrameOfReferencesEv@Base 2.8.7
 _ZN24vtkRTStructSetProperties3IsAEPKc@Base 2.8.7
 _ZN24vtkRTStructSetProperties3NewEv@Base 2.8.7
 _ZN24vtkRTStructSetProperties40GetReferencedFrameOfReferenceInstanceUIDEx@Base 2.8.7
 _ZN24vtkRTStructSetProperties44GetContourReferencedFrameOfReferenceClassUIDExx@Base 2.8.7
 _ZN24vtkRTStructSetProperties45GetNumberOfContourReferencedFrameOfReferencesEv@Base 2.8.7
 _ZN24vtkRTStructSetProperties45GetNumberOfContourReferencedFrameOfReferencesEx@Base 2.8.7
 _ZN24vtkRTStructSetProperties47GetContourReferencedFrameOfReferenceInstanceUIDExx@Base 2.8.7
 _ZN24vtkRTStructSetProperties5ClearEv@Base 2.8.7
 _ZN24vtkRTStructSetProperties8DeepCopyEPS_@Base 2.8.7
 _ZN24vtkRTStructSetProperties9PrintSelfERSo9vtkIndent@Base 2.8.7
 _ZN24vtkRTStructSetPropertiesC1Ev@Base 2.8.7
 _ZN24vtkRTStructSetPropertiesC2Ev@Base 2.8.7
 _ZN24vtkRTStructSetPropertiesD0Ev@Base 2.8.7
 _ZN24vtkRTStructSetPropertiesD1Ev@Base 2.8.7
 _ZN24vtkRTStructSetPropertiesD2Ev@Base 2.8.7
 _ZN25vtkMedicalImageProperties10GetStudyIDEv@Base 2.8.7
 _ZN25vtkMedicalImageProperties10SetStudyIDEPKc@Base 2.8.7
 _ZN25vtkMedicalImageProperties11GetEchoTimeEv@Base 2.8.7
 _ZN25vtkMedicalImageProperties11GetExposureEv@Base 2.8.7
 _ZN25vtkMedicalImageProperties11GetModalityEv@Base 2.8.7
 _ZN25vtkMedicalImageProperties11SetEchoTimeEPKc@Base 2.8.7
 _ZN25vtkMedicalImageProperties11SetExposureEPKc@Base 2.8.7
 _ZN25vtkMedicalImageProperties11SetModalityEPKc@Base 2.8.7
 _ZN25vtkMedicalImageProperties12GetImageDateEv@Base 2.8.7
 _ZN25vtkMedicalImageProperties12GetImageTimeEv@Base 2.8.7
 _ZN25vtkMedicalImageProperties12GetPatientIDEv@Base 2.8.7
 _ZN25vtkMedicalImageProperties12GetStudyDateEv@Base 2.8.7
 _ZN25vtkMedicalImageProperties12GetStudyTimeEv@Base 2.8.7
 _ZN25vtkMedicalImageProperties12SetImageDateEPKc@Base 2.8.7
 _ZN25vtkMedicalImageProperties12SetImageTimeEPKc@Base 2.8.7
 _ZN25vtkMedicalImageProperties12SetPatientIDEPKc@Base 2.8.7
 _ZN25vtkMedicalImageProperties12SetStudyDateEPKc@Base 2.8.7
 _ZN25vtkMedicalImageProperties12SetStudyTimeEPKc@Base 2.8.7
 _ZN25vtkMedicalImageProperties13GetGantryTiltEv@Base 2.8.7
 _ZN25vtkMedicalImageProperties13GetPatientAgeEv@Base 2.8.7
 _ZN25vtkMedicalImageProperties13GetPatientSexEv@Base 2.8.7
 _ZN25vtkMedicalImageProperties13SetGantryTiltEPKc@Base 2.8.7
 _ZN25vtkMedicalImageProperties13SetPatientAgeEPKc@Base 2.8.7
 _ZN25vtkMedicalImageProperties13SetPatientSexEPKc@Base 2.8.7
 _ZN25vtkMedicalImageProperties14GetImageNumberEv@Base 2.8.7
 _ZN25vtkMedicalImageProperties14GetPatientNameEv@Base 2.8.7
 _ZN25vtkMedicalImageProperties14GetStationNameEv@Base 2.8.7
 _ZN25vtkMedicalImageProperties14SetImageNumberEPKc@Base 2.8.7
 _ZN25vtkMedicalImageProperties14SetPatientNameEPKc@Base 2.8.7
 _ZN25vtkMedicalImageProperties14SetStationNameEPKc@Base 2.8.7
 _ZN25vtkMedicalImageProperties15GetExposureTimeEv@Base 2.8.7
 _ZN25vtkMedicalImageProperties15GetManufacturerEv@Base 2.8.7
 _ZN25vtkMedicalImageProperties15GetSeriesNumberEv@Base 2.8.7
 _ZN25vtkMedicalImageProperties15SetExposureTimeEPKc@Base 2.8.7
 _ZN25vtkMedicalImageProperties15SetManufacturerEPKc@Base 2.8.7
 _ZN25vtkMedicalImageProperties15SetSeriesNumberEPKc@Base 2.8.7
 _ZN25vtkMedicalImageProperties17GetRepetitionTimeEv@Base 2.8.7
 _ZN25vtkMedicalImageProperties17GetSliceThicknessEv@Base 2.8.7
 _ZN25vtkMedicalImageProperties17SetRepetitionTimeEPKc@Base 2.8.7
 _ZN25vtkMedicalImageProperties17SetSliceThicknessEPKc@Base 2.8.7
 _ZN25vtkMedicalImageProperties18GetAcquisitionDateEv@Base 2.8.7
 _ZN25vtkMedicalImageProperties18GetAcquisitionTimeEv@Base 2.8.7
 _ZN25vtkMedicalImageProperties18GetDirectionCosineEPd@Base 2.8.7
 _ZN25vtkMedicalImageProperties18GetDirectionCosineERdS0_S0_S0_S0_S0_@Base 2.8.7
 _ZN25vtkMedicalImageProperties18GetDirectionCosineEv@Base 2.8.7
 _ZN25vtkMedicalImageProperties18GetEchoTrainLengthEv@Base 2.8.7
 _ZN25vtkMedicalImageProperties18GetInstitutionNameEv@Base 2.8.7
 _ZN25vtkMedicalImageProperties18GetXRayTubeCurrentEv@Base 2.8.7
 _ZN25vtkMedicalImageProperties18SetAcquisitionDateEPKc@Base 2.8.7
 _ZN25vtkMedicalImageProperties18SetAcquisitionTimeEPKc@Base 2.8.7
 _ZN25vtkMedicalImageProperties18SetDirectionCosineEPd@Base 2.8.7
 _ZN25vtkMedicalImageProperties18SetDirectionCosineEdddddd@Base 2.8.7
 _ZN25vtkMedicalImageProperties18SetEchoTrainLengthEPKc@Base 2.8.7
 _ZN25vtkMedicalImageProperties18SetInstitutionNameEPKc@Base 2.8.7
 _ZN25vtkMedicalImageProperties18SetXRayTubeCurrentEPKc@Base 2.8.7
 _ZN25vtkMedicalImageProperties19GetPatientBirthDateEv@Base 2.8.7
 _ZN25vtkMedicalImageProperties19GetStudyDescriptionEv@Base 2.8.7
 _ZN25vtkMedicalImageProperties19SetPatientBirthDateEPKc@Base 2.8.7
 _ZN25vtkMedicalImageProperties19SetStudyDescriptionEPKc@Base 2.8.7
 _ZN25vtkMedicalImageProperties20GetConvolutionKernelEv@Base 2.8.7
 _ZN25vtkMedicalImageProperties20GetSeriesDescriptionEv@Base 2.8.7
 _ZN25vtkMedicalImageProperties20SetConvolutionKernelEPKc@Base 2.8.7
 _ZN25vtkMedicalImageProperties20SetSeriesDescriptionEPKc@Base 2.8.7
 _ZN25vtkMedicalImageProperties24GetManufacturerModelNameEv@Base 2.8.7
 _ZN25vtkMedicalImageProperties24SetManufacturerModelNameEPKc@Base 2.8.7
 _ZN25vtkMedicalImageProperties6GetKVPEv@Base 2.8.7
 _ZN25vtkMedicalImageProperties6SetKVPEPKc@Base 2.8.7
 _ZN25vtkRenderingCore_AutoInitD1Ev@Base 2.8.7
 _ZN25vtkRenderingCore_AutoInitD2Ev@Base 2.8.7
 _ZN25vtkThreadedImageAlgorithm18GetNumberOfThreadsEv@Base 2.8.7
 _ZN25vtkThreadedImageAlgorithm18SetNumberOfThreadsEi@Base 2.8.7
 _ZN25vtkThreadedImageAlgorithm26GetNumberOfThreadsMaxValueEv@Base 2.8.7
 _ZN25vtkThreadedImageAlgorithm26GetNumberOfThreadsMinValueEv@Base 2.8.7
 _ZN25vtkWindowLevelLookupTable14InverseVideoOnEv@Base 2.8.7
 _ZN27vtkGDCMThreadedImageReader211GetFileNameEi@Base 2.8.7
 _ZN27vtkGDCMThreadedImageReader211SetFileNameEPKc@Base 2.8.7
 _ZN27vtkGDCMThreadedImageReader211SplitExtentEPiS0_ii@Base 2.8.7
 _ZN27vtkGDCMThreadedImageReader212GetFileNamesEv@Base 2.8.7
 _ZN27vtkGDCMThreadedImageReader212SetFileNamesEP14vtkStringArray@Base 2.8.7
 _ZN27vtkGDCMThreadedImageReader213GetDataExtentEPi@Base 2.8.7
 _ZN27vtkGDCMThreadedImageReader213GetDataExtentERiS0_S0_S0_S0_S0_@Base 2.8.7
 _ZN27vtkGDCMThreadedImageReader213GetDataExtentEv@Base 2.8.7
 _ZN27vtkGDCMThreadedImageReader213GetDataOriginEPd@Base 2.8.7
 _ZN27vtkGDCMThreadedImageReader213GetDataOriginERdS0_S0_@Base 2.8.7
 _ZN27vtkGDCMThreadedImageReader213GetDataOriginEv@Base 2.8.7
 _ZN27vtkGDCMThreadedImageReader213SetDataExtentEPi@Base 2.8.7
 _ZN27vtkGDCMThreadedImageReader213SetDataExtentEiiiiii@Base 2.8.7
 _ZN27vtkGDCMThreadedImageReader213SetDataOriginEPd@Base 2.8.7
 _ZN27vtkGDCMThreadedImageReader213SetDataOriginEddd@Base 2.8.7
 _ZN27vtkGDCMThreadedImageReader214GetDataSpacingEPd@Base 2.8.7
 _ZN27vtkGDCMThreadedImageReader214GetDataSpacingERdS0_S0_@Base 2.8.7
 _ZN27vtkGDCMThreadedImageReader214GetDataSpacingEv@Base 2.8.7
 _ZN27vtkGDCMThreadedImageReader214LoadOverlaysOnEv@Base 2.8.7
 _ZN27vtkGDCMThreadedImageReader214SetDataSpacingEPd@Base 2.8.7
 _ZN27vtkGDCMThreadedImageReader214SetDataSpacingEddd@Base 2.8.7
 _ZN27vtkGDCMThreadedImageReader215FileLowerLeftOnEv@Base 2.8.7
 _ZN27vtkGDCMThreadedImageReader215GetLoadOverlaysEv@Base 2.8.7
 _ZN27vtkGDCMThreadedImageReader215LoadOverlaysOffEv@Base 2.8.7
 _ZN27vtkGDCMThreadedImageReader215SetLoadOverlaysEi@Base 2.8.7
 _ZN27vtkGDCMThreadedImageReader215UseShiftScaleOnEv@Base 2.8.7
 _ZN27vtkGDCMThreadedImageReader216FileLowerLeftOffEv@Base 2.8.7
 _ZN27vtkGDCMThreadedImageReader216GetFileLowerLeftEv@Base 2.8.7
 _ZN27vtkGDCMThreadedImageReader216GetUseShiftScaleEv@Base 2.8.7
 _ZN27vtkGDCMThreadedImageReader216SetFileLowerLeftEi@Base 2.8.7
 _ZN27vtkGDCMThreadedImageReader216SetUseShiftScaleEi@Base 2.8.7
 _ZN27vtkGDCMThreadedImageReader216UseShiftScaleOffEv@Base 2.8.7
 _ZN27vtkGDCMThreadedImageReader217GetDataScalarTypeEv@Base 2.8.7
 _ZN27vtkGDCMThreadedImageReader217SetDataScalarTypeEi@Base 2.8.7
 _ZN27vtkGDCMThreadedImageReader218RequestInformationEP14vtkInformationPP20vtkInformationVectorS3_@Base 2.8.7
 _ZN27vtkGDCMThreadedImageReader219GetNumberOfOverlaysEv@Base 2.8.7
 _ZN27vtkGDCMThreadedImageReader219ThreadedRequestDataEP14vtkInformationPP20vtkInformationVectorS3_PPP12vtkImageDataS7_Pii@Base 2.8.7
 _ZN27vtkGDCMThreadedImageReader227GetNumberOfScalarComponentsEv@Base 2.8.7
 _ZN27vtkGDCMThreadedImageReader227SetNumberOfScalarComponentsEi@Base 2.8.7
 _ZN27vtkGDCMThreadedImageReader23IsAEPKc@Base 2.8.7
 _ZN27vtkGDCMThreadedImageReader23NewEv@Base 2.8.7
 _ZN27vtkGDCMThreadedImageReader28GetScaleEv@Base 2.8.7
 _ZN27vtkGDCMThreadedImageReader28GetShiftEv@Base 2.8.7
 _ZN27vtkGDCMThreadedImageReader28SetScaleEd@Base 2.8.7
 _ZN27vtkGDCMThreadedImageReader28SetShiftEd@Base 2.8.7
 _ZN27vtkGDCMThreadedImageReader29PrintSelfERSo9vtkIndent@Base 2.8.7
 _ZN27vtkGDCMThreadedImageReader2C1Ev@Base 2.8.7
 _ZN27vtkGDCMThreadedImageReader2C2Ev@Base 2.8.7
 _ZN27vtkGDCMThreadedImageReader2D0Ev@Base 2.8.7
 _ZN27vtkGDCMThreadedImageReader2D1Ev@Base 2.8.7
 _ZN27vtkGDCMThreadedImageReader2D2Ev@Base 2.8.7
 _ZN27vtkImageColorViewerCallback7ExecuteEP9vtkObjectmPv@Base 2.8.7
 _ZN27vtkImageColorViewerCallbackD0Ev@Base 2.8.7
 _ZN27vtkImageColorViewerCallbackD1Ev@Base 2.8.7
 _ZN27vtkImageColorViewerCallbackD2Ev@Base 2.8.7
 _ZN29vtkGDCMMedicalImageProperties12PushBackFileERKN4gdcm4FileE@Base 2.8.7
 _ZN29vtkGDCMMedicalImageProperties3IsAEPKc@Base 2.8.7
 _ZN29vtkGDCMMedicalImageProperties3NewEv@Base 2.8.7
 _ZN29vtkGDCMMedicalImageProperties5ClearEv@Base 2.8.7
 _ZN29vtkGDCMMedicalImageProperties7GetFileEj@Base 2.8.7
 _ZN29vtkGDCMMedicalImageProperties9PrintSelfERSo9vtkIndent@Base 2.8.7
 _ZN29vtkGDCMMedicalImagePropertiesC1Ev@Base 2.8.7
 _ZN29vtkGDCMMedicalImagePropertiesC2Ev@Base 2.8.7
 _ZN29vtkGDCMMedicalImagePropertiesD0Ev@Base 2.8.7
 _ZN29vtkGDCMMedicalImagePropertiesD1Ev@Base 2.8.7
 _ZN29vtkGDCMMedicalImagePropertiesD2Ev@Base 2.8.7
 _ZN31vtkImageMapToWindowLevelColors211RequestDataEP14vtkInformationPP20vtkInformationVectorS3_@Base 2.8.7
 _ZN31vtkImageMapToWindowLevelColors218RequestInformationEP14vtkInformationPP20vtkInformationVectorS3_@Base 2.8.7
 _ZN31vtkImageMapToWindowLevelColors219ThreadedRequestDataEP14vtkInformationPP20vtkInformationVectorS3_PPP12vtkImageDataS7_Pii@Base 2.8.7
 _ZN31vtkImageMapToWindowLevelColors23IsAEPKc@Base 2.8.7
 _ZN31vtkImageMapToWindowLevelColors23NewEv@Base 2.8.7
 _ZN31vtkImageMapToWindowLevelColors28GetLevelEv@Base 2.8.7
 _ZN31vtkImageMapToWindowLevelColors28SetLevelEd@Base 2.8.7
 _ZN31vtkImageMapToWindowLevelColors29GetWindowEv@Base 2.8.7
 _ZN31vtkImageMapToWindowLevelColors29PrintSelfERSo9vtkIndent@Base 2.8.7
 _ZN31vtkImageMapToWindowLevelColors29SetWindowEd@Base 2.8.7
 _ZN31vtkImageMapToWindowLevelColors2C1Ev@Base 2.8.7
 _ZN31vtkImageMapToWindowLevelColors2C2Ev@Base 2.8.7
 _ZN31vtkImageMapToWindowLevelColors2D0Ev@Base 2.8.7
 _ZN31vtkImageMapToWindowLevelColors2D1Ev@Base 2.8.7
 _ZN31vtkImageMapToWindowLevelColors2D2Ev@Base 2.8.7
 _ZN4gdcm11DataElement12SetByteValueEPKcNS_2VLE@Base 2.8.7
 _ZN4gdcm12SmartPointerINS_5ValueEEaSEPS1_@Base 2.8.7
 _ZN4gdcm20BitmapToBitmapFilterD1Ev@Base 2.8.7
 _ZN4gdcm20BitmapToBitmapFilterD2Ev@Base 2.8.7
 _ZN4gdcm22EncodingImplementationILi74550907EE4ReadINS_6StringILc92ELj16ELc32EEEEEvPT_mRSi@Base 2.8.7
 _ZN4gdcm22EncodingImplementationILi74550907EE4ReadINS_6StringILc92ELj64ELc0EEEEEvPT_mRSi@Base 2.8.7
 _ZN4gdcm22EncodingImplementationILi74550907EE4ReadINS_6StringILc92ELj64ELc32EEEEEvPT_mRSi@Base 2.8.7
 _ZN4gdcm22EncodingImplementationILi74550907EE4ReadIdEEvPT_mRSi@Base 2.8.7
 _ZN4gdcm22EncodingImplementationILi74550907EE5WriteINS_6StringILc92ELj64ELc0EEEEEvPKT_mRSo@Base 2.8.7
 _ZN4gdcm4ItemD1Ev@Base 2.8.7
 _ZN4gdcm4ItemD2Ev@Base 2.8.7
 _ZN4gdcm6Object10UnRegisterEv@Base 2.8.7
 _ZN4gdcm6ObjectD0Ev@Base 2.8.7
 _ZN4gdcm6ObjectD1Ev@Base 2.8.7
 _ZN4gdcm6ObjectD2Ev@Base 2.8.7
 _ZN4gdcm6StringILc92ELj64ELc0EEC1EPKc@Base 2.8.7
 _ZN4gdcm6StringILc92ELj64ELc0EEC2EPKc@Base 2.8.7
 _ZN4gdcm7DataSet12ReplaceEmptyERKNS_11DataElementE@Base 2.8.7
 _ZN4gdcm7DataSet17InsertDataElementERKNS_11DataElementE@Base 2.8.7
 _ZN4gdcm7DataSet6InsertERKNS_11DataElementE@Base 2.8.7
 _ZN4gdcm7ElementILi1024ELi218367EED1Ev@Base 2.8.7
 _ZN4gdcm7ElementILi1024ELi218367EED2Ev@Base 2.8.7
 _ZN4gdcm7ElementILi32ELi218367EE9SetLengthEm@Base 2.8.7
 _ZN4gdcm8FilenameD1Ev@Base 2.8.7
 _ZN4gdcm8FilenameD2Ev@Base 2.8.7
 _ZN4gdcm9AttributeILt12294ELt130ELi512ELi1EE12SetByteValueEPKNS_9ByteValueE@Base 2.8.7
 _ZN4gdcm9AttributeILt12294ELt130ELi512ELi1EE14SetFromDataSetERKNS_7DataSetE@Base 2.8.7
 _ZN4gdcm9AttributeILt12294ELt130ELi512ELi1EE18SetByteValueNoSwapEPKNS_9ByteValueE@Base 2.8.7
 _ZN4gdcm9AttributeILt12294ELt132ELi512ELi1EE12SetByteValueEPKNS_9ByteValueE@Base 2.8.7
 _ZN4gdcm9AttributeILt12294ELt132ELi512ELi1EE14SetFromDataSetERKNS_7DataSetE@Base 2.8.7
 _ZN4gdcm9AttributeILt12294ELt132ELi512ELi1EE18SetByteValueNoSwapEPKNS_9ByteValueE@Base 2.8.7
 _ZN4gdcm9AttributeILt12294ELt133ELi65536ELi1EE12SetByteValueEPKNS_9ByteValueE@Base 2.8.7
 _ZN4gdcm9AttributeILt12294ELt133ELi65536ELi1EE14SetFromDataSetERKNS_7DataSetE@Base 2.8.7
 _ZN4gdcm9AttributeILt12294ELt133ELi65536ELi1EE18SetByteValueNoSwapEPKNS_9ByteValueE@Base 2.8.7
 _ZN4gdcm9AttributeILt12294ELt164ELi8ELi1EE12SetByteValueEPKNS_9ByteValueE@Base 2.8.7
 _ZN4gdcm9AttributeILt12294ELt164ELi8ELi1EE14SetFromDataSetERKNS_7DataSetE@Base 2.8.7
 _ZN4gdcm9AttributeILt12294ELt164ELi8ELi1EE18SetByteValueNoSwapEPKNS_9ByteValueE@Base 2.8.7
 _ZN4gdcm9AttributeILt12294ELt166ELi32768ELi1EE12SetByteValueEPKNS_9ByteValueE@Base 2.8.7
 _ZN4gdcm9AttributeILt12294ELt166ELi32768ELi1EE14SetFromDataSetERKNS_7DataSetE@Base 2.8.7
 _ZN4gdcm9AttributeILt12294ELt166ELi32768ELi1EE18SetByteValueNoSwapEPKNS_9ByteValueE@Base 2.8.7
 _ZN4gdcm9AttributeILt12294ELt34ELi512ELi1EE12SetByteValueEPKNS_9ByteValueE@Base 2.8.7
 _ZN4gdcm9AttributeILt12294ELt34ELi512ELi1EE14SetFromDataSetERKNS_7DataSetE@Base 2.8.7
 _ZN4gdcm9AttributeILt12294ELt34ELi512ELi1EE18SetByteValueNoSwapEPKNS_9ByteValueE@Base 2.8.7
 _ZN4gdcm9AttributeILt12294ELt36ELi4194304ELi1EE12SetByteValueEPKNS_9ByteValueE@Base 2.8.7
 _ZN4gdcm9AttributeILt12294ELt36ELi4194304ELi1EE14SetFromDataSetERKNS_7DataSetE@Base 2.8.7
 _ZN4gdcm9AttributeILt12294ELt36ELi4194304ELi1EE18SetByteValueNoSwapEPKNS_9ByteValueE@Base 2.8.7
 _ZN4gdcm9AttributeILt12294ELt38ELi1024ELi1EE12SetByteValueEPKNS_9ByteValueE@Base 2.8.7
 _ZN4gdcm9AttributeILt12294ELt38ELi1024ELi1EE14SetFromDataSetERKNS_7DataSetE@Base 2.8.7
 _ZN4gdcm9AttributeILt12294ELt38ELi1024ELi1EE18SetByteValueNoSwapEPKNS_9ByteValueE@Base 2.8.7
 _ZN4gdcm9AttributeILt12294ELt40ELi1048576ELi1EE12SetByteValueEPKNS_9ByteValueE@Base 2.8.7
 _ZN4gdcm9AttributeILt12294ELt40ELi1048576ELi1EE14SetFromDataSetERKNS_7DataSetE@Base 2.8.7
 _ZN4gdcm9AttributeILt12294ELt40ELi1048576ELi1EE18SetByteValueNoSwapEPKNS_9ByteValueE@Base 2.8.7
 _ZN4gdcm9AttributeILt12294ELt42ELi512ELi4EE12SetByteValueEPKNS_9ByteValueE@Base 2.8.7
 _ZN4gdcm9AttributeILt12294ELt42ELi512ELi4EE18SetByteValueNoSwapEPKNS_9ByteValueE@Base 2.8.7
 _ZN4gdcm9AttributeILt12294ELt42ELi512ELi4EE18SetFromDataElementERKNS_11DataElementE@Base 2.8.7
 _ZN4gdcm9AttributeILt12294ELt54ELi8ELi1EE12SetByteValueEPKNS_9ByteValueE@Base 2.8.7
 _ZN4gdcm9AttributeILt12294ELt54ELi8ELi1EE14SetFromDataSetERKNS_7DataSetE@Base 2.8.7
 _ZN4gdcm9AttributeILt12294ELt54ELi8ELi1EE18SetByteValueNoSwapEPKNS_9ByteValueE@Base 2.8.7
 _ZN4gdcm9AttributeILt12294ELt66ELi8ELi1EE12SetByteValueEPKNS_9ByteValueE@Base 2.8.7
 _ZN4gdcm9AttributeILt12294ELt66ELi8ELi1EE18SetByteValueNoSwapEPKNS_9ByteValueE@Base 2.8.7
 _ZN4gdcm9AttributeILt12294ELt70ELi512ELi1EE12SetByteValueEPKNS_9ByteValueE@Base 2.8.7
 _ZN4gdcm9AttributeILt12294ELt70ELi512ELi1EE18SetByteValueNoSwapEPKNS_9ByteValueE@Base 2.8.7
 _ZN4gdcm9AttributeILt12294ELt80ELi32ELi218367EE12SetByteValueEPKNS_9ByteValueE@Base 2.8.7
 _ZN4gdcm9AttributeILt32ELt14ELi4194304ELi1EE12SetByteValueEPKNS_9ByteValueE@Base 2.8.7
 _ZN4gdcm9AttributeILt32ELt14ELi4194304ELi1EE18SetByteValueNoSwapEPKNS_9ByteValueE@Base 2.8.7
 _ZN4gdcm9AttributeILt32ELt82ELi4194304ELi1EE12SetByteValueEPKNS_9ByteValueE@Base 2.8.7
 _ZN4gdcm9AttributeILt32ELt82ELi4194304ELi1EE18SetByteValueNoSwapEPKNS_9ByteValueE@Base 2.8.7
 _ZN4gdcm9AttributeILt8ELt4432ELi4194304ELi1EE12SetByteValueEPKNS_9ByteValueE@Base 2.8.7
 _ZN4gdcm9AttributeILt8ELt4432ELi4194304ELi1EE14SetFromDataSetERKNS_7DataSetE@Base 2.8.7
 _ZN4gdcm9AttributeILt8ELt4432ELi4194304ELi1EE18SetByteValueNoSwapEPKNS_9ByteValueE@Base 2.8.7
 _ZN4gdcm9AttributeILt8ELt4437ELi4194304ELi1EE12SetByteValueEPKNS_9ByteValueE@Base 2.8.7
 _ZN4gdcm9AttributeILt8ELt4437ELi4194304ELi1EE14SetFromDataSetERKNS_7DataSetE@Base 2.8.7
 _ZN4gdcm9AttributeILt8ELt4437ELi4194304ELi1EE18SetByteValueNoSwapEPKNS_9ByteValueE@Base 2.8.7
 _ZN4gdcm9AttributeILt8ELt8ELi8ELi218367EED1Ev@Base 2.8.7
 _ZN4gdcm9AttributeILt8ELt8ELi8ELi218367EED2Ev@Base 2.8.7
 _ZN4gdcm9ByteValueC1EPKcRKNS_2VLE@Base 2.8.7
 _ZN4gdcm9ByteValueC2EPKcRKNS_2VLE@Base 2.8.7
 _ZN4gdcm9to_stringIdEENSt7__cxx1112basic_stringIcSt11char_traitsIcESaIcEEET_@Base 2.8.7
 _ZN4gdcmlsERSoRKNS_11DataElementE@Base 2.8.7
 _ZN4gdcmlsERSoRKNS_3TagE@Base 2.8.7
 _ZN7vtkProp13GetVisibilityEv@Base 2.8.7
 _ZN7vtkProp13SetVisibilityEi@Base 2.8.7
 _ZN9vtkCamera11GetPositionEv@Base 2.8.7
 _ZN9vtkCamera16GetParallelScaleEv@Base 2.8.7
 _ZN9vtkCamera20ParallelProjectionOnEv@Base 2.8.7
 _ZN9vtkWindow13GetWindowNameEv@Base 2.8.7
 _ZN9vtkWindow21GetOffScreenRenderingEv@Base 2.8.7
 _ZN9vtkWindow21SetOffScreenRenderingEi@Base 2.8.7
 _ZNK10vtkCommand19NewInstanceInternalEv@Base 2.8.7
 _ZNK10vtkCommand20GetClassNameInternalEv@Base 2.8.7
 _ZNK14vtkGDCMTesting19NewInstanceInternalEv@Base 2.8.7
 _ZNK14vtkGDCMTesting20GetClassNameInternalEv@Base 2.8.7
 _ZNK16vtkImageRGBToYBR19NewInstanceInternalEv@Base 2.8.7
 _ZNK16vtkImageRGBToYBR20GetClassNameInternalEv@Base 2.8.7
 _ZNK16vtkImageYBRToRGB19NewInstanceInternalEv@Base 2.8.7
 _ZNK16vtkImageYBRToRGB20GetClassNameInternalEv@Base 2.8.7
 _ZNK16vtkLookupTable1619NewInstanceInternalEv@Base 2.8.7
 _ZNK16vtkLookupTable1620GetClassNameInternalEv@Base 2.8.7
 _ZNK18vtkGDCMImageReader19NewInstanceInternalEv@Base 2.8.7
 _ZNK18vtkGDCMImageReader20GetClassNameInternalEv@Base 2.8.7
 _ZNK18vtkGDCMImageWriter19NewInstanceInternalEv@Base 2.8.7
 _ZNK18vtkGDCMImageWriter20GetClassNameInternalEv@Base 2.8.7
 _ZNK19vtkGDCMImageReader219NewInstanceInternalEv@Base 2.8.7
 _ZNK19vtkGDCMImageReader220GetClassNameInternalEv@Base 2.8.7
 _ZNK19vtkImageColorViewer19NewInstanceInternalEv@Base 2.8.7
 _ZNK19vtkImageColorViewer20GetClassNameInternalEv@Base 2.8.7
 _ZNK21vtkGDCMPolyDataReader19NewInstanceInternalEv@Base 2.8.7
 _ZNK21vtkGDCMPolyDataReader20GetClassNameInternalEv@Base 2.8.7
 _ZNK21vtkGDCMPolyDataWriter19NewInstanceInternalEv@Base 2.8.7
 _ZNK21vtkGDCMPolyDataWriter20GetClassNameInternalEv@Base 2.8.7
 _ZNK21vtkImageMapToColors1619NewInstanceInternalEv@Base 2.8.7
 _ZNK21vtkImageMapToColors1620GetClassNameInternalEv@Base 2.8.7
 _ZNK24vtkRTStructSetProperties19NewInstanceInternalEv@Base 2.8.7
 _ZNK24vtkRTStructSetProperties20GetClassNameInternalEv@Base 2.8.7
 _ZNK27vtkGDCMThreadedImageReader219NewInstanceInternalEv@Base 2.8.7
 _ZNK27vtkGDCMThreadedImageReader220GetClassNameInternalEv@Base 2.8.7
 _ZNK29vtkGDCMMedicalImageProperties19NewInstanceInternalEv@Base 2.8.7
 _ZNK29vtkGDCMMedicalImageProperties20GetClassNameInternalEv@Base 2.8.7
 _ZNK31vtkImageMapToWindowLevelColors219NewInstanceInternalEv@Base 2.8.7
 _ZNK31vtkImageMapToWindowLevelColors220GetClassNameInternalEv@Base 2.8.7
 _ZNK4gdcm11DataElement7IsEmptyEv@Base 2.8.7
 _ZNK4gdcm15SequenceOfItems9GetLengthEv@Base 2.8.7
 _ZNK4gdcm6Object5PrintERSo@Base 2.8.7
 _ZNK4gdcm7DataSet14GetDataElementERKNS_3TagE@Base 2.8.7
 _ZNK4gdcm7DataSet15FindDataElementERKNS_3TagE@Base 2.8.7
 _ZNK4gdcm7ElementILi1024ELi218367EE16GetAsDataElementEv@Base 2.8.7
 _ZNK4gdcm7ElementILi32ELi218367EE16GetAsDataElementEv@Base 2.8.7
 _ZNK4gdcm9AttributeILt12294ELt132ELi512ELi1EE16GetAsDataElementEv@Base 2.8.7
 _ZNK4gdcm9AttributeILt8ELt4432ELi4194304ELi1EE16GetAsDataElementEv@Base 2.8.7
 _ZNK4gdcm9AttributeILt8ELt4437ELi4194304ELi1EE16GetAsDataElementEv@Base 2.8.7
 _ZNK4gdcm9ByteValue9GetLengthEv@Base 2.8.7
 _ZNKSt5ctypeIcE8do_widenEc@Base 2.8.7
 _ZNKSt8_Rb_treeIN4gdcm11DataElementES1_St9_IdentityIS1_ESt4lessIS1_ESaIS1_EE4findERKS1_@Base 2.8.7
 _ZNKSt8_Rb_treeIN4gdcm3TagESt4pairIKS1_NS0_9DictEntryEESt10_Select1stIS5_ESt4lessIS1_ESaIS5_EE4findERS3_@Base 2.8.7
 _ZNSt4pairINSt7__cxx1112basic_stringIcSt11char_traitsIcESaIcEEES5_ED1Ev@Base 2.8.7
 _ZNSt4pairINSt7__cxx1112basic_stringIcSt11char_traitsIcESaIcEEES5_ED2Ev@Base 2.8.7
 _ZNSt6vectorI15StructureSetROISaIS0_EE17_M_realloc_insertIJRKS0_EEEvN9__gnu_cxx17__normal_iteratorIPS0_S2_EEDpOT_@Base 2.8.7
 _ZNSt6vectorIN4gdcm12SmartPointerINS0_4FileEEESaIS3_EE17_M_realloc_insertIJS3_EEEvN9__gnu_cxx17__normal_iteratorIPS3_S5_EEDpOT_@Base 2.8.7
 _ZNSt6vectorIN4gdcm5CurveESaIS1_EEaSERKS3_@Base 2.8.7
 _ZNSt6vectorIN4gdcm7OverlayESaIS1_EEaSERKS3_@Base 2.8.7
 _ZNSt6vectorIS_ISt4pairINSt7__cxx1112basic_stringIcSt11char_traitsIcESaIcEEES6_ESaIS7_EESaIS9_EE17_M_default_appendEm@Base 2.8.7
 _ZNSt6vectorISt4pairINSt7__cxx1112basic_stringIcSt11char_traitsIcESaIcEEES6_ESaIS7_EE12emplace_backIJS7_EEEvDpOT_@Base 2.8.7
 _ZNSt6vectorISt4pairINSt7__cxx1112basic_stringIcSt11char_traitsIcESaIcEEES6_ESaIS7_EE17_M_realloc_insertIJS7_EEEvN9__gnu_cxx17__normal_iteratorIPS7_S9_EEDpOT_@Base 2.8.7
 _ZNSt6vectorISt4pairINSt7__cxx1112basic_stringIcSt11char_traitsIcESaIcEEES6_ESaIS7_EEaSERKS9_@Base 2.8.7
 _ZNSt6vectorIcSaIcEE17_M_default_appendEm@Base 2.8.7
 _ZNSt6vectorIdSaIdEE17_M_realloc_insertIJRKdEEEvN9__gnu_cxx17__normal_iteratorIPdS1_EEDpOT_@Base 2.8.7
 _ZNSt6vectorIdSaIdEEaSERKS1_@Base 2.8.7
 _ZNSt6vectorIjSaIjEEaSERKS1_@Base 2.8.7
 _ZNSt7__cxx1115basic_stringbufIcSt11char_traitsIcESaIcEED0Ev@Base 2.8.7
 _ZNSt7__cxx1115basic_stringbufIcSt11char_traitsIcESaIcEED1Ev@Base 2.8.7
 _ZNSt7__cxx1115basic_stringbufIcSt11char_traitsIcESaIcEED2Ev@Base 2.8.7
 _ZNSt8_Rb_treeIN4gdcm11DataElementES1_St9_IdentityIS1_ESt4lessIS1_ESaIS1_EE11equal_rangeERKS1_@Base 2.8.7
 _ZNSt8_Rb_treeIN4gdcm11DataElementES1_St9_IdentityIS1_ESt4lessIS1_ESaIS1_EE12_M_erase_auxESt23_Rb_tree_const_iteratorIS1_E@Base 2.8.7
 _ZNSt8_Rb_treeIN4gdcm11DataElementES1_St9_IdentityIS1_ESt4lessIS1_ESaIS1_EE16_M_insert_uniqueIRKS1_EESt4pairISt17_Rb_tree_iteratorIS1_EbEOT_@Base 2.8.7
 _ZNSt8_Rb_treeIN4gdcm11DataElementES1_St9_IdentityIS1_ESt4lessIS1_ESaIS1_EE8_M_eraseEPSt13_Rb_tree_nodeIS1_E@Base 2.8.7
 _ZNSt8_Rb_treeIN4gdcm11PixelFormat10ScalarTypeES2_St9_IdentityIS2_ESt4lessIS2_ESaIS2_EE16_M_insert_uniqueIRKS2_EESt4pairISt17_Rb_tree_iteratorIS2_EbEOT_@Base 2.8.7
 _ZNSt8_Rb_treeIN4gdcm11PixelFormat10ScalarTypeES2_St9_IdentityIS2_ESt4lessIS2_ESaIS2_EE8_M_eraseEPSt13_Rb_tree_nodeIS2_E@Base 2.8.7
 _ZNSt8_Rb_treeIttSt9_IdentityItESt4lessItESaItEE16_M_insert_uniqueItEESt4pairISt17_Rb_tree_iteratorItEbEOT_@Base 2.8.7
 _ZNSt8_Rb_treeIttSt9_IdentityItESt4lessItESaItEE8_M_eraseEPSt13_Rb_tree_nodeItE@Base 2.8.7
 _ZTI10vtkCommand@Base 2.8.7
 _ZTI14vtkGDCMTesting@Base 2.8.7
 _ZTI16vtkImageRGBToYBR@Base 2.8.7
 _ZTI16vtkImageYBRToRGB@Base 2.8.7
 _ZTI16vtkLookupTable16@Base 2.8.7
 _ZTI18vtkGDCMImageReader@Base 2.8.7
 _ZTI18vtkGDCMImageWriter@Base 2.8.7
 _ZTI19vtkGDCMImageReader2@Base 2.8.7
 _ZTI19vtkImageColorViewer@Base 2.8.7
 _ZTI21vtkGDCMPolyDataReader@Base 2.8.7
 _ZTI21vtkGDCMPolyDataWriter@Base 2.8.7
 _ZTI21vtkImageMapToColors16@Base 2.8.7
 _ZTI24vtkRTStructSetProperties@Base 2.8.7
 _ZTI27vtkGDCMThreadedImageReader2@Base 2.8.7
 _ZTI27vtkImageColorViewerCallback@Base 2.8.7
 _ZTI29vtkGDCMMedicalImageProperties@Base 2.8.7
 _ZTI31vtkImageMapToWindowLevelColors2@Base 2.8.7
 _ZTIN4gdcm6ObjectE@Base 2.8.7
 _ZTS10vtkCommand@Base 2.8.7
 _ZTS14vtkGDCMTesting@Base 2.8.7
 _ZTS16vtkImageRGBToYBR@Base 2.8.7
 _ZTS16vtkImageYBRToRGB@Base 2.8.7
 _ZTS16vtkLookupTable16@Base 2.8.7
 _ZTS18vtkGDCMImageReader@Base 2.8.7
 _ZTS18vtkGDCMImageWriter@Base 2.8.7
 _ZTS19vtkGDCMImageReader2@Base 2.8.7
 _ZTS19vtkImageColorViewer@Base 2.8.7
 _ZTS21vtkGDCMPolyDataReader@Base 2.8.7
 _ZTS21vtkGDCMPolyDataWriter@Base 2.8.7
 _ZTS21vtkImageMapToColors16@Base 2.8.7
 _ZTS24vtkRTStructSetProperties@Base 2.8.7
 _ZTS27vtkGDCMThreadedImageReader2@Base 2.8.7
 _ZTS27vtkImageColorViewerCallback@Base 2.8.7
 _ZTS29vtkGDCMMedicalImageProperties@Base 2.8.7
 _ZTS31vtkImageMapToWindowLevelColors2@Base 2.8.7
 _ZTSN4gdcm6ObjectE@Base 2.8.7
 _ZTV10vtkCommand@Base 2.8.7
 _ZTV14vtkGDCMTesting@Base 2.8.7
 _ZTV16vtkImageRGBToYBR@Base 2.8.7
 _ZTV16vtkImageYBRToRGB@Base 2.8.7
 _ZTV16vtkLookupTable16@Base 2.8.7
 _ZTV18vtkGDCMImageReader@Base 2.8.7
 _ZTV18vtkGDCMImageWriter@Base 2.8.7
 _ZTV19vtkGDCMImageReader2@Base 2.8.7
 _ZTV19vtkImageColorViewer@Base 2.8.7
 _ZTV21vtkGDCMPolyDataReader@Base 2.8.7
 _ZTV21vtkGDCMPolyDataWriter@Base 2.8.7
 _ZTV21vtkImageMapToColors16@Base 2.8.7
 _ZTV24vtkRTStructSetProperties@Base 2.8.7
 _ZTV27vtkGDCMThreadedImageReader2@Base 2.8.7
 _ZTV27vtkImageColorViewerCallback@Base 2.8.7
 _ZTV29vtkGDCMMedicalImageProperties@Base 2.8.7
 _ZTV31vtkImageMapToWindowLevelColors2@Base 2.8.7
 _ZTVN4gdcm6ObjectE@Base 2.8.7
